(dp0
VFreddy Vs. Jason
p1
(lp2
VAction
p3
aVHorror
p4
aVThriller
p5
asVVampires Suck
p6
(lp7
VComedy
p8
asVYes Man
p9
(lp10
VComedy
p11
aVRomance
p12
asVLife of Pi
p13
(lp14
VAdventure
p15
aVDrama
p16
aVFantasy
p17
asVThe Crazies
p18
(lp19
VHorror
p20
aVThriller
p21
asVCradle 2 the Grave
p22
(lp23
VAction
p24
aVCrime
p25
aVDrama
p26
aVThriller
p27
asVNanny McPhee Returns
p28
(lp29
VComedy
p30
aVFamily
p31
aVFantasy
p32
asVThe Blind Side
p33
(lp34
VBiography
p35
aVDrama
p36
aVSport
p37
asVAlvin and the Chipmunks: The Squeakquel
p38
(lp39
VAnimation
p40
aVComedy
p41
aVFamily
p42
aVFantasy
p43
aVMusic
p44
asVWe're the Millers
p45
(lp46
VComedy
p47
aVCrime
p48
asVNo Good Deed (2014)
p49
(lp50
VCrime
p51
aVThriller
p52
asVTitanic 3D
p53
S'N/A'
p54
sVDefinitely, Maybe
p55
(lp56
VComedy
p57
aVDrama
p58
aVRomance
p59
asVDomestic Disturbance
p60
(lp61
VCrime
p62
aVMystery
p63
aVThriller
p64
asVThe Muppets
p65
(lp66
VAdventure
p67
aVComedy
p68
aVFamily
p69
aVMusical
p70
asVThe Benchwarmers
p71
(lp72
VComedy
p73
aVSport
p74
asVThe Amityville Horror (2005)
p75
(lp76
VDrama
p77
aVHorror
p78
aVMystery
p79
aVThriller
p80
asVGuess Who
p81
(lp82
VComedy
p83
aVRomance
p84
asVRiding in Cars with Boys
p85
(lp86
VBiography
p87
aVComedy
p88
aVDrama
p89
asVPaul
p90
(lp91
VAdventure
p92
aVComedy
p93
aVSci-Fi
p94
asVLee Daniels' The Butler
p95
(lp96
VBiography
p97
aVDrama
p98
asVEvan Almighty
p99
(lp100
VComedy
p101
aVFamily
p102
aVFantasy
p103
asVJohn Carter
p104
(lp105
VAction
p106
aVAdventure
p107
aVSci-Fi
p108
asVGridiron Gang
p109
(lp110
VCrime
p111
aVDrama
p112
aVSport
p113
asV3:10 to Yuma (2007)
p114
(lp115
VAdventure
p116
aVCrime
p117
aVDrama
p118
aVWestern
p119
asVThe Amazing Spider-Man
p120
(lp121
VAction
p122
aVAdventure
p123
asVBedtime Stories
p124
(lp125
VComedy
p126
aVFamily
p127
aVFantasy
p128
aVRomance
p129
asVWar Dogs
p130
(lp131
VComedy
p132
aVCrime
p133
aVDrama
p134
aVWar
p135
asVBrooklyn's Finest
p136
(lp137
VCrime
p138
aVDrama
p139
aVThriller
p140
asVGosford Park
p141
(lp142
VComedy
p143
aVDrama
p144
aVMystery
p145
asVThe Texas Chainsaw Massacre
p146
(lp147
VHorror
p148
asVThe Hateful Eight
p149
(lp150
VCrime
p151
aVDrama
p152
aVMystery
p153
aVThriller
p154
aVWestern
p155
asVTwilight
p156
(lp157
VDrama
p158
aVFantasy
p159
aVRomance
p160
asVHow to Lose a Guy in 10 Days
p161
(lp162
VComedy
p163
aVRomance
p164
asVMan of Steel
p165
(lp166
VAction
p167
aVAdventure
p168
aVFantasy
p169
aVSci-Fi
p170
asVI Am Legend
p171
(lp172
VDrama
p173
aVHorror
p174
aVSci-Fi
p175
aVThriller
p176
asVLegion (2010)
p177
(lp178
VAction
p179
aVFantasy
p180
aVHorror
p181
asVPride and Prejudice
p182
(lp183
VDrama
p184
aVRomance
p185
asVKnocked Up
p186
(lp187
VComedy
p188
aVRomance
p189
asVA United Kingdom
p190
(lp191
VBiography
p192
aVDrama
p193
aVRomance
p194
asVX-Men
p195
(lp196
VAction
p197
aVAdventure
p198
aVSci-Fi
p199
asVMaid in Manhattan
p200
(lp201
VComedy
p202
aVDrama
p203
aVRomance
p204
asVThe Day After Tomorrow
p205
(lp206
VAction
p207
aVAdventure
p208
aVSci-Fi
p209
aVThriller
p210
asVMy Big Fat Greek Wedding 2
p211
(lp212
VComedy
p213
aVFamily
p214
aVRomance
p215
asVMarch of the Penguins
p216
(lp217
VDocumentary
p218
aVFamily
p219
asVGood Boy!
p220
(lp221
VComedy
p222
aVDrama
p223
aVFamily
p224
aVFantasy
p225
aVSci-Fi
p226
asVLittle Fockers
p227
(lp228
VComedy
p229
aVRomance
p230
asVCaptain America: The First Avenger
p231
(lp232
VAction
p233
aVAdventure
p234
aVSci-Fi
p235
asVAlexander and the Terrible, Horrible, No Good, Very Bad Day
p236
(lp237
VComedy
p238
aVFamily
p239
asVSyriana
p240
(lp241
VDrama
p242
aVThriller
p243
asVAgent Cody Banks
p244
(lp245
VAction
p246
aVAdventure
p247
aVComedy
p248
aVCrime
p249
aVFamily
p250
aVRomance
p251
aVThriller
p252
asVThis is the End
p253
(lp254
VComedy
p255
aVFantasy
p256
asVInferno
p257
(lp258
VAction
p259
aVAdventure
p260
aVCrime
p261
aVDrama
p262
aVMystery
p263
aVThriller
p264
asVEpic
p265
(lp266
VAnimation
p267
aVAdventure
p268
aVFamily
p269
aVFantasy
p270
asVThe Last Word
p271
(lp272
VComedy
p273
aVDrama
p274
asVJumper
p275
(lp276
VAction
p277
aVAdventure
p278
aVSci-Fi
p279
aVThriller
p280
asVJuno
p281
(lp282
VComedy
p283
aVDrama
p284
asVBrother Bear
p285
(lp286
VAnimation
p287
aVAdventure
p288
aVComedy
p289
aVFamily
p290
aVFantasy
p291
asVThe Wedding Planner
p292
(lp293
VComedy
p294
aVRomance
p295
asV28 Days
p296
(lp297
VComedy
p298
aVDrama
p299
asVKillers
p300
(lp301
VAction
p302
aVComedy
p303
aVRomance
p304
aVThriller
p305
asVGlory Road
p306
(lp307
VBiography
p308
aVDrama
p309
aVSport
p310
asVHearts in Atlantis
p311
(lp312
VDrama
p313
aVMystery
p314
asVAnacondas: The Hunt for the Blood Orchid
p315
(lp316
VAction
p317
aVAdventure
p318
aVHorror
p319
aVThriller
p320
asVStep Up 2 the Streets
p321
(lp322
VDrama
p323
aVMusic
p324
aVRomance
p325
asVOculus
p326
(lp327
VHorror
p328
aVMystery
p329
asVThat Awkward Moment
p330
(lp331
VComedy
p332
aVRomance
p333
asVThe Heat
p334
(lp335
VAction
p336
aVComedy
p337
aVCrime
p338
asVThe Campaign
p339
(lp340
VComedy
p341
asVA Dog's Purpose
p342
(lp343
VAdventure
p344
aVComedy
p345
aVDrama
p346
aVFamily
p347
aVFantasy
p348
asVReindeer Games
p349
(lp350
VAction
p351
aVAdventure
p352
aVCrime
p353
aVThriller
p354
asV16 Blocks
p355
(lp356
VAction
p357
aVCrime
p358
aVDrama
p359
aVThriller
p360
asVHow to Train Your Dragon 2
p361
g54
sVIron Man 2
p362
(lp363
VAction
p364
aVAdventure
p365
aVSci-Fi
p366
asVIron Man 3
p367
(lp368
VAction
p369
aVAdventure
p370
aVSci-Fi
p371
asVThe Lone Ranger
p372
(lp373
VAction
p374
aVAdventure
p375
aVWestern
p376
asVToy Story 3
p377
(lp378
VAnimation
p379
aVAdventure
p380
aVComedy
p381
aVFamily
p382
aVFantasy
p383
asVBruno
p384
(lp385
VComedy
p386
asVTyler Perry's Madea's Big Happy Family
p387
(lp388
VComedy
p389
aVDrama
p390
asVFahrenheit 9/11
p391
(lp392
VDocumentary
p393
aVDrama
p394
aVWar
p395
asVThe Perfect Guy
p396
(lp397
VDrama
p398
aVThriller
p399
asVThe LEGO Movie
p400
(lp401
VAnimation
p402
aVAction
p403
aVAdventure
p404
aVComedy
p405
aVFamily
p406
aVFantasy
p407
asVThe Hangover Part II
p408
(lp409
VComedy
p410
aVMystery
p411
asVEarth to Echo
p412
(lp413
VAdventure
p414
aVFamily
p415
aVSci-Fi
p416
asVGod's Not Dead
p417
(lp418
VDrama
p419
asVTyler Perry's I Can Do Bad All By Myself
p420
(lp421
VComedy
p422
aVDrama
p423
asVSex and the City 2
p424
(lp425
VComedy
p426
aVDrama
p427
aVRomance
p428
asVThe Twilight Saga: Eclipse
p429
(lp430
VAdventure
p431
aVDrama
p432
aVFantasy
p433
aVRomance
p434
asVJohn Q.
p435
(lp436
VCrime
p437
aVDrama
p438
aVThriller
p439
asVCrouching Tiger, Hidden Dragon
p440
(lp441
VAction
p442
aVAdventure
p443
aVFantasy
p444
aVRomance
p445
asVJupiter Ascending
p446
(lp447
VAction
p448
aVAdventure
p449
aVSci-Fi
p450
asVAli
p451
(lp452
VBiography
p453
aVDrama
p454
aVSport
p455
asVSicario
p456
(lp457
VAction
p458
aVCrime
p459
aVDrama
p460
aVMystery
p461
aVThriller
p462
asVClockstoppers
p463
(lp464
VAction
p465
aVAdventure
p466
aVComedy
p467
aVSci-Fi
p468
aVThriller
p469
asVIron Man
p470
(lp471
VAction
p472
aVAdventure
p473
aVSci-Fi
p474
asVSinister 2
p475
(lp476
VHorror
p477
aVMystery
p478
aVThriller
p479
asVMichael Clayton
p480
(lp481
VCrime
p482
aVDrama
p483
aVThriller
p484
asVJersey Girl
p485
(lp486
VComedy
p487
aVDrama
p488
aVRomance
p489
asVThe Brothers
p490
(lp491
VComedy
p492
aVDrama
p493
asVHotel Rwanda
p494
(lp495
VBiography
p496
aVDrama
p497
aVHistory
p498
aVWar
p499
asVRise of the Planet of the Apes
p500
(lp501
VAction
p502
aVDrama
p503
aVSci-Fi
p504
aVThriller
p505
asVMegamind
p506
(lp507
VAnimation
p508
aVAction
p509
aVComedy
p510
aVFamily
p511
aVSci-Fi
p512
asVRush (2013)
p513
(lp514
VAction
p515
aVBiography
p516
aVDrama
p517
aVHistory
p518
aVSport
p519
asVHero
p520
(lp521
VAction
p522
aVAdventure
p523
aVHistory
p524
asVBride Wars
p525
(lp526
VComedy
p527
aVRomance
p528
asVBlades of Glory
p529
(lp530
VComedy
p531
aVSport
p532
asVThe Woman in Black 2: Angel of Death
p533
(lp534
VDrama
p535
aVHorror
p536
aVThriller
p537
asVScream 4
p538
(lp539
VHorror
p540
aVMystery
p541
asVThe Forbidden Kingdom
p542
(lp543
VAction
p544
aVAdventure
p545
aVFantasy
p546
asVG.I. Joe: The Rise of Cobra
p547
(lp548
VAction
p549
aVAdventure
p550
aVSci-Fi
p551
aVThriller
p552
asVFlorence Foster Jenkins
p553
(lp554
VBiography
p555
aVComedy
p556
aVDrama
p557
aVMusic
p558
asVDreamgirls
p559
(lp560
VDrama
p561
aVMusic
p562
aVMusical
p563
asVChronicle (2012)
p564
(lp565
VSci-Fi
p566
aVThriller
p567
asVNick and Norah's Infinite Playlist
p568
(lp569
VComedy
p570
aVDrama
p571
aVMusic
p572
aVRomance
p573
asVThe Texas Chainsaw Massacre: The Beginning
p574
(lp575
VHorror
p576
asVThis Christmas
p577
(lp578
VComedy
p579
aVDrama
p580
aVRomance
p581
asVGangs of New York
p582
(lp583
VCrime
p584
aVDrama
p585
asVScooby-Doo 2: Monsters Unleashed
p586
(lp587
VAdventure
p588
aVComedy
p589
aVFamily
p590
aVFantasy
p591
aVHorror
p592
aVMystery
p593
asVA Haunted House
p594
(lp595
VComedy
p596
aVFantasy
p597
asVThe DUFF
p598
(lp599
VComedy
p600
asVMona Lisa Smile
p601
(lp602
VDrama
p603
asVStar Wars: Episode I - The Phantom Menace (in 3D)
p604
(lp605
VAction
p606
aVAdventure
p607
aVFantasy
p608
aVSci-Fi
p609
asVTransporter 3
p610
(lp611
VAction
p612
aVAdventure
p613
aVCrime
p614
aVMystery
p615
aVThriller
p616
asVTransporter 2
p617
(lp618
VAction
p619
aVCrime
p620
aVThriller
p621
asVWhat's the Worst That Could Happen?
p622
(lp623
VComedy
p624
aVCrime
p625
asVThe Back-Up Plan
p626
(lp627
VComedy
p628
aVRomance
p629
asVReign of Fire
p630
(lp631
VAction
p632
aVAdventure
p633
aVFantasy
p634
aVSci-Fi
p635
aVThriller
p636
asVMcFarland, USA
p637
(lp638
VBiography
p639
aVDrama
p640
aVSport
p641
asVWonder Boys
p642
(lp643
VComedy
p644
aVDrama
p645
asVTaken 3
p646
(lp647
VAction
p648
aVThriller
p649
asVG.I. Joe: Retaliation
p650
(lp651
VAction
p652
aVAdventure
p653
aVSci-Fi
p654
aVThriller
p655
asVThe Last Witch Hunter
p656
(lp657
VAction
p658
aVAdventure
p659
aVFantasy
p660
asVGifted
p661
(lp662
VDrama
p663
asVHot Pursuit
p664
(lp665
VAction
p666
aVComedy
p667
aVCrime
p668
asVBarbershop
p669
(lp670
VComedy
p671
aVDrama
p672
asVPlanes
p673
(lp674
VAnimation
p675
aVAdventure
p676
aVComedy
p677
aVFamily
p678
asV22 Jump Street
p679
(lp680
VAction
p681
aVComedy
p682
aVCrime
p683
asVIdentity Thief
p684
(lp685
VComedy
p686
aVCrime
p687
asVHigh Crimes
p688
(lp689
VCrime
p690
aVDrama
p691
aVMystery
p692
aVThriller
p693
asVUnbreakable
p694
(lp695
VDrama
p696
aVMystery
p697
aVSci-Fi
p698
aVThriller
p699
asVRise of the Guardians
p700
(lp701
VAnimation
p702
aVAdventure
p703
aVFamily
p704
aVFantasy
p705
asVMission to Mars
p706
(lp707
VAdventure
p708
aVSci-Fi
p709
aVThriller
p710
asVIn Her Shoes
p711
(lp712
VComedy
p713
aVDrama
p714
aVRomance
p715
asVDraft Day
p716
(lp717
VDrama
p718
aVSport
p719
asVBandits
p720
(lp721
VComedy
p722
aVCrime
p723
aVDrama
p724
aVRomance
p725
asVTaking Lives
p726
(lp727
VCrime
p728
aVMystery
p729
aVThriller
p730
asVThe Mortal Instruments: City of Bones
p731
(lp732
VAction
p733
aVFantasy
p734
aVHorror
p735
aVMystery
p736
aVRomance
p737
asVThe Tuxedo
p738
(lp739
VAction
p740
aVComedy
p741
aVSci-Fi
p742
asVGothika
p743
(lp744
VHorror
p745
aVMystery
p746
aVThriller
p747
asVMatchstick Men
p748
(lp749
VComedy
p750
aVCrime
p751
aVDrama
p752
aVThriller
p753
asVJack Reacher
p754
(lp755
VAction
p756
aVCrime
p757
aVMystery
p758
aVThriller
p759
asVThe Grudge 2
p760
(lp761
VHorror
p762
aVThriller
p763
asVRed Tails
p764
(lp765
VAction
p766
aVAdventure
p767
aVDrama
p768
aVHistory
p769
aVWar
p770
asVThe Martian
p771
(lp772
VAdventure
p773
aVDrama
p774
aVSci-Fi
p775
asVMission: Impossible - Ghost Protocol
p776
(lp777
VAction
p778
aVAdventure
p779
aVThriller
p780
asVV for Vendetta
p781
(lp782
VAction
p783
aVDrama
p784
aVThriller
p785
asVBurlesque
p786
(lp787
VDrama
p788
aVMusic
p789
aVMusical
p790
aVRomance
p791
asVX-Men: Days of Future Past
p792
(lp793
VAction
p794
aVAdventure
p795
aVSci-Fi
p796
aVThriller
p797
asVThe Proposal
p798
(lp799
VComedy
p800
aVDrama
p801
aVRomance
p802
asVAlexander
p803
(lp804
VAction
p805
aVAdventure
p806
aVBiography
p807
aVDrama
p808
aVHistory
p809
aVRomance
p810
aVWar
p811
asVThe Polar Express
p812
(lp813
VAnimation
p814
aVAdventure
p815
aVFamily
p816
aVFantasy
p817
aVMusical
p818
asVRugrats in Paris: The Movie
p819
(lp820
VAnimation
p821
aVAdventure
p822
aVComedy
p823
aVFamily
p824
aVRomance
p825
asVRemember the Titans
p826
(lp827
VBiography
p828
aVDrama
p829
aVSport
p830
asVCharlie Wilson's War
p831
(lp832
VBiography
p833
aVComedy
p834
aVDrama
p835
aVHistory
p836
asVAll About Steve
p837
(lp838
VComedy
p839
aVRomance
p840
asVSamaritan's Purse: Facing Darkness (Encore)
p841
g54
sVFrequency
p842
(lp843
VDrama
p844
aVFantasy
p845
aVMystery
p846
aVSci-Fi
p847
aVThriller
p848
asVThe Interpreter
p849
(lp850
VCrime
p851
aVMystery
p852
aVThriller
p853
asVWhite House Down
p854
(lp855
VAction
p856
aVDrama
p857
aVThriller
p858
asVBridget Jones's Diary
p859
(lp860
VComedy
p861
aVDrama
p862
aVRomance
p863
asVCheaper by the Dozen
p864
(lp865
VComedy
p866
aVFamily
p867
asVBoys and Girls
p868
(lp869
VComedy
p870
aVDrama
p871
aVRomance
p872
asVThe Golden Compass
p873
(lp874
VAdventure
p875
aVFamily
p876
aVFantasy
p877
asVChicago
p878
(lp879
VComedy
p880
aVCrime
p881
aVMusical
p882
asVThe Number 23
p883
(lp884
VMystery
p885
aVThriller
p886
asVWedding Crashers
p887
(lp888
VComedy
p889
aVRomance
p890
asVNurse Betty
p891
(lp892
VComedy
p893
aVCrime
p894
aVDrama
p895
aVRomance
p896
asVUnbroken
p897
(lp898
VBiography
p899
aVDrama
p900
aVSport
p901
aVWar
p902
asV21 Jump Street
p903
(lp904
VAction
p905
aVComedy
p906
aVCrime
p907
asVFlight
p908
(lp909
VDrama
p910
aVThriller
p911
asVUnited 93
p912
(lp913
VDrama
p914
aVHistory
p915
aVThriller
p916
asVCop Out
p917
(lp918
VAction
p919
aVComedy
p920
aVCrime
p921
asVThe Accountant
p922
(lp923
VAction
p924
aVCrime
p925
aVDrama
p926
aVThriller
p927
asVTransformers: Dark of the Moon
p928
(lp929
VAction
p930
aVAdventure
p931
aVSci-Fi
p932
asVFever Pitch
p933
(lp934
VComedy
p935
aVDrama
p936
aVRomance
p937
aVSport
p938
asVFrozen
p939
(lp940
VAnimation
p941
aVAdventure
p942
aVComedy
p943
aVFamily
p944
aVFantasy
p945
aVMusical
p946
asVShooter
p947
(lp948
VAction
p949
aVDrama
p950
asVResident Evil: Apocalypse
p951
(lp952
VAction
p953
aVHorror
p954
aVSci-Fi
p955
aVThriller
p956
asVLucy
p957
(lp958
VAction
p959
aVSci-Fi
p960
aVThriller
p961
asVDracula 2000
p962
(lp963
VAction
p964
aVFantasy
p965
aVHorror
p966
aVThriller
p967
asVZodiac
p968
(lp969
VCrime
p970
aVDrama
p971
aVHistory
p972
aVMystery
p973
aVThriller
p974
asVA Million Ways to Die in the West
p975
(lp976
VComedy
p977
aVRomance
p978
aVWestern
p979
asVNext Friday
p980
(lp981
VComedy
p982
asVThe Road to El Dorado
p983
(lp984
VAnimation
p985
aVAdventure
p986
aVComedy
p987
aVFamily
p988
aVRomance
p989
asVThe Chronicles of Narnia: Prince Caspian
p990
(lp991
VAction
p992
aVAdventure
p993
aVFamily
p994
aVFantasy
p995
asVMax (2015)
p996
(lp997
VAdventure
p998
aVFamily
p999
asVIn Time
p1000
(lp1001
VAction
p1002
aVSci-Fi
p1003
aVThriller
p1004
asVThe Tigger Movie
p1005
(lp1006
VAnimation
p1007
aVComedy
p1008
aVDrama
p1009
aVFamily
p1010
aVMusical
p1011
asVMaze Runner: The Scorch Trials
p1012
(lp1013
VAction
p1014
aVSci-Fi
p1015
aVThriller
p1016
asVTwisted
p1017
(lp1018
VDrama
p1019
aVMystery
p1020
aVThriller
p1021
asVThe Chronicles of Riddick
p1022
(lp1023
VAction
p1024
aVAdventure
p1025
aVSci-Fi
p1026
aVThriller
p1027
asVSnow White and the Huntsman
p1028
(lp1029
VAction
p1030
aVAdventure
p1031
aVDrama
p1032
aVFantasy
p1033
asVJack Ryan: Shadow Recruit
p1034
(lp1035
VAction
p1036
aVDrama
p1037
aVThriller
p1038
asVThe New Guy
p1039
(lp1040
VComedy
p1041
asVDumb and Dumber To
p1042
(lp1043
VComedy
p1044
asVBalls of Fury
p1045
(lp1046
VComedy
p1047
aVCrime
p1048
aVSport
p1049
asVSnitch
p1050
(lp1051
VAction
p1052
aVDrama
p1053
aVThriller
p1054
asVThe Manchurian Candidate
p1055
(lp1056
VDrama
p1057
aVMystery
p1058
aVSci-Fi
p1059
aVThriller
p1060
asVThe Island
p1061
(lp1062
VAction
p1063
aVAdventure
p1064
aVRomance
p1065
aVSci-Fi
p1066
aVThriller
p1067
asVWhen in Rome
p1068
(lp1069
VComedy
p1070
aVRomance
p1071
asVWhat Happens in Vegas
p1072
(lp1073
VComedy
p1074
aVRomance
p1075
asVExorcist: The Beginning
p1076
(lp1077
VHorror
p1078
aVMystery
p1079
aVThriller
p1080
asVWhere the Heart Is
p1081
(lp1082
VComedy
p1083
aVDrama
p1084
aVRomance
p1085
asVBarbershop 2: Back in Business
p1086
(lp1087
VComedy
p1088
aVDrama
p1089
asVMillion Dollar Baby
p1090
(lp1091
VDrama
p1092
aVSport
p1093
asVFirst Sunday
p1094
(lp1095
VComedy
p1096
aVCrime
p1097
aVDrama
p1098
asVFrom Hell
p1099
(lp1100
VHorror
p1101
aVMystery
p1102
aVThriller
p1103
asVAloha
p1104
(lp1105
VComedy
p1106
aVDrama
p1107
aVRomance
p1108
asVBecause of Winn-Dixie
p1109
(lp1110
VComedy
p1111
aVDrama
p1112
aVFamily
p1113
asVFriday After Next
p1114
(lp1115
VComedy
p1116
aVDrama
p1117
asVFinal Fantasy: The Spirits Within
p1118
(lp1119
VAnimation
p1120
aVAction
p1121
aVAdventure
p1122
aVFantasy
p1123
aVRomance
p1124
aVSci-Fi
p1125
asVSnakes on a Plane
p1126
(lp1127
VAction
p1128
aVAdventure
p1129
aVCrime
p1130
aVDrama
p1131
aVThriller
p1132
asVUnderdog
p1133
(lp1134
VAction
p1135
aVAdventure
p1136
aVComedy
p1137
aVFamily
p1138
aVFantasy
p1139
aVSci-Fi
p1140
asVRio
p1141
(lp1142
VAnimation
p1143
aVAdventure
p1144
aVComedy
p1145
aVFamily
p1146
aVMusical
p1147
asVFun with Dick and Jane
p1148
(lp1149
VComedy
p1150
aVCrime
p1151
asVDeep Sea 3D (IMAX)
p1152
g54
sVHome on the Range
p1153
(lp1154
VAnimation
p1155
aVComedy
p1156
aVFamily
p1157
aVMusic
p1158
aVWestern
p1159
asVThe Stepfather (2009)
p1160
(lp1161
VCrime
p1162
aVThriller
p1163
asVHannah Montana The Movie
p1164
(lp1165
VComedy
p1166
aVDrama
p1167
aVFamily
p1168
aVMusic
p1169
aVRomance
p1170
asVShrek Forever After
p1171
(lp1172
VAnimation
p1173
aVAdventure
p1174
aVComedy
p1175
aVFamily
p1176
aVFantasy
p1177
asVA History of Violence
p1178
(lp1179
VCrime
p1180
aVDrama
p1181
aVThriller
p1182
asVA Beautiful Mind
p1183
(lp1184
VBiography
p1185
aVDrama
p1186
asVThe Mummy: Tomb of the Dragon Emperor
p1187
(lp1188
VAction
p1189
aVAdventure
p1190
aVFantasy
p1191
aVHorror
p1192
aVThriller
p1193
asVPercy Jackson: Sea of Monsters
p1194
(lp1195
VAdventure
p1196
aVFamily
p1197
aVFantasy
p1198
asVGrown Ups
p1199
(lp1200
VComedy
p1201
asVSnow Dogs
p1202
(lp1203
VAdventure
p1204
aVComedy
p1205
aVFamily
p1206
aVSport
p1207
asVThe Fourth Kind
p1208
(lp1209
VMystery
p1210
aVSci-Fi
p1211
aVThriller
p1212
asVMarley and Me
p1213
(lp1214
VComedy
p1215
aVDrama
p1216
aVFamily
p1217
asVPirates of the Caribbean: Dead Man's Chest
p1218
(lp1219
VAction
p1220
aVAdventure
p1221
aVFantasy
p1222
asVTMNT
p1223
(lp1224
VAnimation
p1225
aVAction
p1226
aVAdventure
p1227
aVComedy
p1228
aVFamily
p1229
aVFantasy
p1230
aVSci-Fi
p1231
asVInsomnia
p1232
(lp1233
VDrama
p1234
aVMystery
p1235
aVThriller
p1236
asVI Am Number Four
p1237
(lp1238
VAction
p1239
aVAdventure
p1240
aVSci-Fi
p1241
aVThriller
p1242
asVThe Game Plan
p1243
(lp1244
VComedy
p1245
aVFamily
p1246
aVSport
p1247
asVThe Eye
p1248
(lp1249
VHorror
p1250
aVMystery
p1251
asVThe Lord of the Rings: The Two Towers
p1252
(lp1253
VAdventure
p1254
aVDrama
p1255
aVFantasy
p1256
asVThe Hangover Part III
p1257
(lp1258
VComedy
p1259
aVCrime
p1260
asVOblivion
p1261
(lp1262
VAction
p1263
aVAdventure
p1264
aVMystery
p1265
aVSci-Fi
p1266
asVShe's Out of My League
p1267
(lp1268
VComedy
p1269
aVRomance
p1270
asVSeven Pounds
p1271
(lp1272
VDrama
p1273
aVRomance
p1274
asVUptown Girls
p1275
(lp1276
VComedy
p1277
aVDrama
p1278
aVRomance
p1279
asVThe Wild
p1280
(lp1281
VAction
p1282
aVAdventure
p1283
aVDrama
p1284
aVThriller
p1285
asVReal Steel
p1286
(lp1287
VAction
p1288
aVDrama
p1289
aVFamily
p1290
aVSci-Fi
p1291
aVSport
p1292
asVRock Dog
p1293
(lp1294
VAnimation
p1295
aVAdventure
p1296
aVComedy
p1297
aVFamily
p1298
aVMusic
p1299
asVBuddies in India
p1300
(lp1301
VAction
p1302
aVComedy
p1303
asVThink Like a Man Too
p1304
(lp1305
VComedy
p1306
aVRomance
p1307
asVCloser
p1308
(lp1309
VDrama
p1310
aVRomance
p1311
asVInto The Storm
p1312
(lp1313
VAction
p1314
aVThriller
p1315
asVBee Movie
p1316
(lp1317
VAnimation
p1318
aVAdventure
p1319
aVComedy
p1320
aVFamily
p1321
asVMe Before You
p1322
(lp1323
VDrama
p1324
aVRomance
p1325
asVKick-Ass
p1326
(lp1327
VAction
p1328
aVComedy
p1329
asVJackass 3-D
p1330
(lp1331
VDocumentary
p1332
aVAction
p1333
aVComedy
p1334
asVThe Whole Nine Yards
p1335
(lp1336
VComedy
p1337
aVCrime
p1338
asVThe Bourne Supremacy
p1339
(lp1340
VAction
p1341
aVMystery
p1342
aVThriller
p1343
asVMagic Mike XXL
p1344
(lp1345
VComedy
p1346
aVDrama
p1347
aVMusic
p1348
asVThe Unborn (2009)
p1349
(lp1350
VDrama
p1351
aVHorror
p1352
aVMystery
p1353
aVThriller
p1354
asVSkyfall
p1355
(lp1356
VAction
p1357
aVAdventure
p1358
aVThriller
p1359
asVBlack Knight
p1360
(lp1361
VAdventure
p1362
aVComedy
p1363
aVFantasy
p1364
asVBattle of Memories
p1365
(lp1366
VMystery
p1367
aVThriller
p1368
asVPoseidon
p1369
(lp1370
VAction
p1371
aVAdventure
p1372
aVDrama
p1373
aVThriller
p1374
asVRighteous Kill
p1375
(lp1376
VAction
p1377
aVCrime
p1378
aVDrama
p1379
aVMystery
p1380
aVThriller
p1381
asVIn Good Company
p1382
(lp1383
VComedy
p1384
aVDrama
p1385
aVRomance
p1386
asVJustin Bieber: Never Say Never
p1387
(lp1388
VDocumentary
p1389
aVMusic
p1390
asVBehind Enemy Lines
p1391
(lp1392
VAction
p1393
aVDrama
p1394
aVThriller
p1395
aVWar
p1396
asVJourney 2: The Mysterious Island
p1397
(lp1398
VAction
p1399
aVAdventure
p1400
aVComedy
p1401
aVFamily
p1402
aVFantasy
p1403
aVSci-Fi
p1404
asVSpy Kids: All the Time in the World
p1405
(lp1406
VAction
p1407
aVAdventure
p1408
aVComedy
p1409
aVFamily
p1410
aVSci-Fi
p1411
asVTomorrowland
p1412
(lp1413
VAction
p1414
aVAdventure
p1415
aVFamily
p1416
aVMystery
p1417
aVSci-Fi
p1418
asVSpy Kids
p1419
(lp1420
VAction
p1421
aVAdventure
p1422
aVComedy
p1423
aVFamily
p1424
aVSci-Fi
p1425
asVThe Witch
p1426
(lp1427
VHorror
p1428
aVMystery
p1429
asVMadagascar
p1430
(lp1431
VAnimation
p1432
aVAdventure
p1433
aVComedy
p1434
aVFamily
p1435
asVThe Imitation Game
p1436
(lp1437
VBiography
p1438
aVDrama
p1439
aVThriller
p1440
aVWar
p1441
asVFinding Dory
p1442
(lp1443
VAnimation
p1444
aVAdventure
p1445
aVComedy
p1446
aVFamily
p1447
asVUnfriended
p1448
(lp1449
VDrama
p1450
aVHorror
p1451
aVMystery
p1452
aVThriller
p1453
asVCaptain America: Civil War
p1454
(lp1455
VAction
p1456
aVAdventure
p1457
aVSci-Fi
p1458
asVVacation
p1459
(lp1460
VAdventure
p1461
aVComedy
p1462
asVNinja Assassin
p1463
(lp1464
VAction
p1465
aVCrime
p1466
aVThriller
p1467
asVCharlie's Angels
p1468
(lp1469
VAction
p1470
aVAdventure
p1471
aVComedy
p1472
aVCrime
p1473
aVThriller
p1474
asVFifty Shades Darker
p1475
(lp1476
VDrama
p1477
aVRomance
p1478
asVInglourious Basterds
p1479
(lp1480
VAdventure
p1481
aVDrama
p1482
aVWar
p1483
asVThe Devil Wears Prada
p1484
(lp1485
VComedy
p1486
aVDrama
p1487
asVThe Adjustment Bureau
p1488
(lp1489
VRomance
p1490
aVSci-Fi
p1491
aVThriller
p1492
asVBedazzled (2000)
p1493
(lp1494
VComedy
p1495
aVFantasy
p1496
asVAlice Through the Looking Glass
p1497
(lp1498
VAdventure
p1499
aVFamily
p1500
aVFantasy
p1501
asVCaptain Corelli's Mandolin
p1502
(lp1503
VDrama
p1504
aVMusic
p1505
aVRomance
p1506
aVWar
p1507
asVBlue Jasmine
p1508
(lp1509
VDrama
p1510
asVSurf's Up
p1511
(lp1512
VAnimation
p1513
aVComedy
p1514
aVFamily
p1515
aVSport
p1516
asVAmelie
p1517
(lp1518
VComedy
p1519
aVRomance
p1520
asVHouse at the End of The Street
p1521
(lp1522
VDrama
p1523
aVHorror
p1524
aVThriller
p1525
asVThe Heartbreak Kid
p1526
(lp1527
VComedy
p1528
aVRomance
p1529
asVCrossroads
p1530
(lp1531
VComedy
p1532
aVDrama
p1533
aVRomance
p1534
asVFour Christmases
p1535
(lp1536
VComedy
p1537
aVDrama
p1538
aVRomance
p1539
asVLost in Translation
p1540
(lp1541
VDrama
p1542
asVAlong Came Polly
p1543
(lp1544
VComedy
p1545
aVRomance
p1546
asVThe Aviator
p1547
(lp1548
VBiography
p1549
aVDrama
p1550
aVHistory
p1551
asVGrudge Match
p1552
(lp1553
VComedy
p1554
aVDrama
p1555
aVSport
p1556
asVRed Eye
p1557
(lp1558
VMystery
p1559
aVThriller
p1560
asVThe Nice Guys
p1561
(lp1562
VAction
p1563
aVComedy
p1564
aVCrime
p1565
aVMystery
p1566
aVThriller
p1567
asVBounce
p1568
(lp1569
VDrama
p1570
aVRomance
p1571
asVCheaper by the Dozen 2
p1572
(lp1573
VAdventure
p1574
aVComedy
p1575
aVFamily
p1576
asVSaw III
p1577
(lp1578
VHorror
p1579
asVDelivery Man
p1580
(lp1581
VComedy
p1582
aVDrama
p1583
asVBarbershop: The Next Cut
p1584
(lp1585
VComedy
p1586
aVDrama
p1587
asVThe Divergent Series: Allegiant
p1588
(lp1589
VAction
p1590
aVAdventure
p1591
aVMystery
p1592
aVSci-Fi
p1593
aVThriller
p1594
asVLakeview Terrace
p1595
(lp1596
VCrime
p1597
aVDrama
p1598
aVThriller
p1599
asVWindtalkers
p1600
(lp1601
VAction
p1602
aVDrama
p1603
aVWar
p1604
asVParanormal Activity 4
p1605
(lp1606
VHorror
p1607
asVHow High
p1608
(lp1609
VComedy
p1610
aVFantasy
p1611
asVThe Incredible Hulk
p1612
(lp1613
VAction
p1614
aVAdventure
p1615
aVSci-Fi
p1616
asVDolphin Tale 2
p1617
(lp1618
VDrama
p1619
aVFamily
p1620
asVIn the Bedroom
p1621
(lp1622
VCrime
p1623
aVDrama
p1624
asVLicense to Wed
p1625
(lp1626
VComedy
p1627
aVRomance
p1628
asVThe Informant!
p1629
(lp1630
VComedy
p1631
aVCrime
p1632
aVDrama
p1633
asVBeauty and the Beast (IMAX)
p1634
(lp1635
VFamily
p1636
aVFantasy
p1637
aVMusical
p1638
aVRomance
p1639
asVThe Hundred-Foot Journey
p1640
(lp1641
VComedy
p1642
aVDrama
p1643
asVKnight & Day
p1644
(lp1645
VAction
p1646
aVComedy
p1647
aVRomance
p1648
asVKedi
p1649
(lp1650
VAdventure
p1651
aVComedy
p1652
aVFamily
p1653
aVFantasy
p1654
asVThe Lincoln Lawyer
p1655
(lp1656
VCrime
p1657
aVDrama
p1658
aVThriller
p1659
asVSong to Song
p1660
(lp1661
VDrama
p1662
aVMusic
p1663
aVRomance
p1664
asVWhat Women Want
p1665
(lp1666
VComedy
p1667
aVFantasy
p1668
aVRomance
p1669
asVThe Mothman Prophecies
p1670
(lp1671
VDrama
p1672
aVHorror
p1673
aVMystery
p1674
aVThriller
p1675
asVParanormal Activity 3
p1676
(lp1677
VHorror
p1678
asVParanormal Activity 2
p1679
(lp1680
VHorror
p1681
asVShanghai Noon
p1682
(lp1683
VAction
p1684
aVAdventure
p1685
aVComedy
p1686
aVWestern
p1687
asVCharlie St. Cloud
p1688
(lp1689
VDrama
p1690
aVFantasy
p1691
aVRomance
p1692
asVHow to Be Single
p1693
(lp1694
VComedy
p1695
aVRomance
p1696
asVThe Girl with the Dragon Tattoo (2011)
p1697
(lp1698
VCrime
p1699
aVDrama
p1700
aVMystery
p1701
aVThriller
p1702
asVDouble Take
p1703
(lp1704
VAction
p1705
aVComedy
p1706
aVCrime
p1707
aVThriller
p1708
asVThe Terminal
p1709
(lp1710
VComedy
p1711
aVDrama
p1712
aVRomance
p1713
asVZathura
p1714
(lp1715
VAction
p1716
aVAdventure
p1717
aVComedy
p1718
aVFamily
p1719
aVFantasy
p1720
aVSci-Fi
p1721
asVTyler Perry's The Family That Preys
p1722
(lp1723
VDrama
p1724
asVWe Own the Night
p1725
(lp1726
VCrime
p1727
aVDrama
p1728
aVThriller
p1729
asVThe Ottoman Lieutenant
p1730
(lp1731
VDrama
p1732
aVWar
p1733
asVBasic
p1734
(lp1735
VAction
p1736
aVCrime
p1737
aVDrama
p1738
aVMystery
p1739
aVThriller
p1740
asVBaby Boy
p1741
(lp1742
VCrime
p1743
aVDrama
p1744
aVRomance
p1745
aVThriller
p1746
asVApocalypto
p1747
(lp1748
VAction
p1749
aVAdventure
p1750
aVDrama
p1751
aVThriller
p1752
asVEdge of Darkness
p1753
(lp1754
VCrime
p1755
aVDrama
p1756
aVMystery
p1757
aVThriller
p1758
asVFences
p1759
(lp1760
VDrama
p1761
asVThe Princess and the Frog
p1762
(lp1763
VAnimation
p1764
aVAdventure
p1765
aVComedy
p1766
aVFamily
p1767
aVFantasy
p1768
aVMusical
p1769
aVRomance
p1770
asVPlanet of the Apes (2001)
p1771
(lp1772
VAction
p1773
aVAdventure
p1774
aVSci-Fi
p1775
aVThriller
p1776
asVDon't Say a Word
p1777
(lp1778
VDrama
p1779
aVMystery
p1780
aVThriller
p1781
asVDr. Dolittle 2
p1782
(lp1783
VComedy
p1784
aVFamily
p1785
aVFantasy
p1786
asVLove and Other Drugs
p1787
(lp1788
VComedy
p1789
aVDrama
p1790
aVRomance
p1791
asVThe Reaping
p1792
(lp1793
VHorror
p1794
aVThriller
p1795
asVAnnabelle
p1796
(lp1797
VHorror
p1798
aVMystery
p1799
aVThriller
p1800
asVThe Hunger Games: Catching Fire
p1801
(lp1802
VAction
p1803
aVAdventure
p1804
aVMystery
p1805
aVSci-Fi
p1806
aVThriller
p1807
asVAccepted
p1808
(lp1809
VComedy
p1810
asVThe Fast and the Furious: Tokyo Drift
p1811
(lp1812
VAction
p1813
aVCrime
p1814
aVThriller
p1815
asVLike Mike
p1816
(lp1817
VComedy
p1818
aVFamily
p1819
aVFantasy
p1820
aVSport
p1821
asVThe Twilight Saga: New Moon
p1822
(lp1823
VAdventure
p1824
aVDrama
p1825
aVFantasy
p1826
aVRomance
p1827
asVRifftrax: Samurai Cop
p1828
g54
sVDown to Earth
p1829
(lp1830
VComedy
p1831
aVFantasy
p1832
asVTaken 2
p1833
(lp1834
VAction
p1835
aVCrime
p1836
aVThriller
p1837
asVMamma Mia!
p1838
(lp1839
VComedy
p1840
aVFamily
p1841
aVMusical
p1842
aVRomance
p1843
asVThe Ugly Truth
p1844
(lp1845
VComedy
p1846
aVRomance
p1847
asVThe Perfect Storm
p1848
(lp1849
VAction
p1850
aVAdventure
p1851
aVDrama
p1852
aVThriller
p1853
asVMonster's Ball
p1854
(lp1855
VDrama
p1856
aVRomance
p1857
asVThe Phantom of the Opera
p1858
(lp1859
VDrama
p1860
aVMusical
p1861
aVRomance
p1862
aVThriller
p1863
asVLara Croft Tomb Raider: The Cradle of Life
p1864
(lp1865
VAction
p1866
aVAdventure
p1867
aVFantasy
p1868
asVNerve
p1869
(lp1870
VAdventure
p1871
aVCrime
p1872
aVMystery
p1873
aVThriller
p1874
asVMan on Fire
p1875
(lp1876
VAction
p1877
aVCrime
p1878
aVDrama
p1879
aVThriller
p1880
asVThe Artist
p1881
(lp1882
VComedy
p1883
aVDrama
p1884
aVRomance
p1885
asV13 Hours: The Secret Soldiers of Benghazi
p1886
(lp1887
VAction
p1888
aVDrama
p1889
aVHistory
p1890
aVThriller
p1891
aVWar
p1892
asV102 Dalmatians
p1893
(lp1894
VAdventure
p1895
aVComedy
p1896
aVFamily
p1897
asVThe Fighter
p1898
(lp1899
VAction
p1900
aVBiography
p1901
aVDrama
p1902
aVSport
p1903
asVValentine
p1904
(lp1905
VHorror
p1906
aVMystery
p1907
aVThriller
p1908
asVThe Longest Ride
p1909
(lp1910
VDrama
p1911
aVRomance
p1912
asVConstantine
p1913
(lp1914
VDrama
p1915
aVFantasy
p1916
aVHorror
p1917
aVThriller
p1918
asVBody of Lies
p1919
(lp1920
VAction
p1921
aVDrama
p1922
aVRomance
p1923
aVThriller
p1924
aVWar
p1925
asVTerminator: Genisys
p1926
(lp1927
VAction
p1928
aVAdventure
p1929
aVSci-Fi
p1930
asVA Very Harold & Kumar 3D Christmas
p1931
(lp1932
VAdventure
p1933
aVComedy
p1934
asVOne Direction: This is Us
p1935
(lp1936
VDocumentary
p1937
aVMusic
p1938
asVSafe House
p1939
(lp1940
VAction
p1941
aVCrime
p1942
aVMystery
p1943
aVThriller
p1944
asVSmurfs: The Lost Village
p1945
(lp1946
VAnimation
p1947
aVAdventure
p1948
aVComedy
p1949
aVFamily
p1950
aVFantasy
p1951
asVBridesmaids
p1952
(lp1953
VComedy
p1954
aVRomance
p1955
asVDrillbit Taylor
p1956
(lp1957
VComedy
p1958
aVDrama
p1959
asVJoy Ride
p1960
(lp1961
VMystery
p1962
aVThriller
p1963
asVDeath at a Funeral (2010)
p1964
(lp1965
VComedy
p1966
asVHercules (2014)
p1967
(lp1968
VAction
p1969
aVAdventure
p1970
asVFinding Neverland
p1971
(lp1972
VBiography
p1973
aVDrama
p1974
aVFamily
p1975
asVSex Tape
p1976
(lp1977
VComedy
p1978
aVRomance
p1979
asVBig Momma's House
p1980
(lp1981
VAction
p1982
aVComedy
p1983
aVCrime
p1984
asVThe Purge
p1985
(lp1986
VHorror
p1987
aVSci-Fi
p1988
aVThriller
p1989
asVPearl Harbor
p1990
(lp1991
VAction
p1992
aVDrama
p1993
aVHistory
p1994
aVRomance
p1995
aVWar
p1996
asVSuperbad
p1997
(lp1998
VComedy
p1999
asVRatatouille
p2000
(lp2001
VAnimation
p2002
aVComedy
p2003
aVFamily
p2004
aVFantasy
p2005
asVSinister
p2006
(lp2007
VHorror
p2008
aVMystery
p2009
asVHall Pass
p2010
(lp2011
VComedy
p2012
aVRomance
p2013
asVCrazy, Stupid, Love.
p2014
(lp2015
VComedy
p2016
aVDrama
p2017
aVRomance
p2018
asVSomeone Like You
p2019
(lp2020
VComedy
p2021
aVRomance
p2022
asVMirrors
p2023
(lp2024
VHorror
p2025
aVMystery
p2026
asVRoboCop (2014)
p2027
(lp2028
VAction
p2029
aVCrime
p2030
aVSci-Fi
p2031
aVThriller
p2032
asVStarsky and Hutch
p2033
(lp2034
VAction
p2035
aVCrime
p2036
aVDrama
p2037
aVMystery
p2038
asVColossal
p2039
(lp2040
VAction
p2041
aVComedy
p2042
aVSci-Fi
p2043
asV2016 Obama's America
p2044
(lp2045
VDocumentary
p2046
asVCatch Me If You Can
p2047
(lp2048
VBiography
p2049
aVCrime
p2050
aVDrama
p2051
asVSuperman Returns
p2052
(lp2053
VAction
p2054
aVAdventure
p2055
aVSci-Fi
p2056
asVMirror Mirror
p2057
(lp2058
VAdventure
p2059
aVComedy
p2060
aVDrama
p2061
aVFamily
p2062
aVFantasy
p2063
asVLes Miserables (2012)
p2064
(lp2065
VDrama
p2066
aVMusical
p2067
aVRomance
p2068
asV47 Ronin
p2069
(lp2070
VAction
p2071
aVAdventure
p2072
aVDrama
p2073
aVFantasy
p2074
asVBrokeback Mountain
p2075
(lp2076
VDrama
p2077
aVRomance
p2078
asVIndiana Jones and the Kingdom of the Crystal Skull
p2079
(lp2080
VAction
p2081
aVAdventure
p2082
aVFantasy
p2083
asVNo Reservations
p2084
(lp2085
VComedy
p2086
aVDrama
p2087
aVRomance
p2088
asVWhy Him?
p2089
(lp2090
VComedy
p2091
asVTotal Recall (2012)
p2092
(lp2093
VAction
p2094
aVAdventure
p2095
aVMystery
p2096
aVSci-Fi
p2097
aVThriller
p2098
asVMonster
p2099
(lp2100
VBiography
p2101
aVCrime
p2102
aVDrama
p2103
aVThriller
p2104
asVPhone Booth
p2105
(lp2106
VCrime
p2107
aVThriller
p2108
asVGhost in the Shell (2017)
p2109
(lp2110
VAction
p2111
aVCrime
p2112
aVDrama
p2113
aVMystery
p2114
aVSci-Fi
p2115
aVThriller
p2116
asVOver the Hedge
p2117
(lp2118
VAnimation
p2119
aVAdventure
p2120
aVComedy
p2121
aVFamily
p2122
asVGeorge Takei's Allegiance
p2123
(lp2124
VMusical
p2125
asVThe Purge: Election Year
p2126
(lp2127
VAction
p2128
aVHorror
p2129
aVSci-Fi
p2130
aVThriller
p2131
asVTrolls
p2132
(lp2133
VAnimation
p2134
aVAdventure
p2135
aVComedy
p2136
aVFamily
p2137
aVFantasy
p2138
aVMusical
p2139
asVDisney's The Kid
p2140
(lp2141
VComedy
p2142
aVFamily
p2143
aVFantasy
p2144
asVDark Shadows
p2145
(lp2146
VComedy
p2147
aVFantasy
p2148
aVHorror
p2149
asVGrindhouse
p2150
(lp2151
VAction
p2152
aVHorror
p2153
aVThriller
p2154
asVShanghai Knights
p2155
(lp2156
VAction
p2157
aVAdventure
p2158
aVComedy
p2159
asVCinderella (2015)
p2160
(lp2161
VDrama
p2162
aVFamily
p2163
aVFantasy
p2164
aVRomance
p2165
asVPeter Pan
p2166
(lp2167
VAdventure
p2168
aVFamily
p2169
aVFantasy
p2170
asVThe Great Debaters
p2171
(lp2172
VBiography
p2173
aVDrama
p2174
aVRomance
p2175
asVGet Hard
p2176
(lp2177
VComedy
p2178
aVCrime
p2179
asVTyler Perry's Diary of a Mad Black Woman
p2180
(lp2181
VComedy
p2182
aVDrama
p2183
aVRomance
p2184
asVThe Cell
p2185
(lp2186
VHorror
p2187
aVSci-Fi
p2188
aVThriller
p2189
asVWarm Bodies
p2190
(lp2191
VComedy
p2192
aVHorror
p2193
aVRomance
p2194
asVGhostbusters (2016)
p2195
(lp2196
VAction
p2197
aVComedy
p2198
aVFantasy
p2199
aVSci-Fi
p2200
asV3 Days to Kill
p2201
(lp2202
VAction
p2203
aVDrama
p2204
aVThriller
p2205
asVSmokin' Aces
p2206
(lp2207
VAction
p2208
aVCrime
p2209
aVDrama
p2210
aVThriller
p2211
asVEnemy at the Gates
p2212
(lp2213
VDrama
p2214
aVHistory
p2215
aVWar
p2216
asVLilo & Stitch
p2217
(lp2218
VAnimation
p2219
aVAdventure
p2220
aVComedy
p2221
aVDrama
p2222
aVFamily
p2223
aVFantasy
p2224
aVSci-Fi
p2225
asVMeet the Spartans
p2226
(lp2227
VComedy
p2228
asVWelcome Home Roscoe Jenkins
p2229
(lp2230
VComedy
p2231
aVRomance
p2232
asVThe Life Aquatic with Steve Zissou
p2233
(lp2234
VAdventure
p2235
aVComedy
p2236
aVDrama
p2237
asVJ. Edgar
p2238
(lp2239
VBiography
p2240
aVCrime
p2241
aVDrama
p2242
aVRomance
p2243
asVBolt
p2244
(lp2245
VAnimation
p2246
aVAdventure
p2247
aVComedy
p2248
aVDrama
p2249
aVFamily
p2250
asVHell or High Water
p2251
(lp2252
VCrime
p2253
aVDrama
p2254
aVThriller
p2255
aVWestern
p2256
asVWar Horse
p2257
(lp2258
VDrama
p2259
aVWar
p2260
asVThe Hot Chick
p2261
(lp2262
VComedy
p2263
aVFantasy
p2264
asVErin Brockovich
p2265
(lp2266
VBiography
p2267
aVDrama
p2268
asVConfessions of a Shopaholic
p2269
(lp2270
VComedy
p2271
aVFamily
p2272
aVRomance
p2273
asVHannibal
p2274
(lp2275
VCrime
p2276
aVDrama
p2277
aVHorror
p2278
aVMystery
p2279
aVThriller
p2280
asVInsidious Chapter 3
p2281
(lp2282
VComedy
p2283
aVTalk-Show
p2284
asVInsidious Chapter 2
p2285
(lp2286
VComedy
p2287
aVTalk-Show
p2288
asVHer (2013)
p2289
(lp2290
VDrama
p2291
aVRomance
p2292
aVSci-Fi
p2293
asVThe Last Exorcism
p2294
(lp2295
VDrama
p2296
aVHorror
p2297
aVThriller
p2298
asVBattleship
p2299
(lp2300
VAction
p2301
aVAdventure
p2302
aVSci-Fi
p2303
aVThriller
p2304
asVThe Croods
p2305
(lp2306
VAnimation
p2307
aVAdventure
p2308
aVComedy
p2309
aVFamily
p2310
aVFantasy
p2311
asVRank
p2312
(lp2313
VDocumentary
p2314
asVBridget Jones's Baby
p2315
(lp2316
VComedy
p2317
aVRomance
p2318
asVThe Messengers
p2319
(lp2320
VDrama
p2321
aVFantasy
p2322
aVMystery
p2323
aVThriller
p2324
asVTim Burton's Corpse Bride
p2325
(lp2326
VAnimation
p2327
aVDrama
p2328
aVFamily
p2329
aVFantasy
p2330
aVMusical
p2331
aVRomance
p2332
asVMonster House
p2333
(lp2334
VAnimation
p2335
aVAdventure
p2336
aVComedy
p2337
aVFamily
p2338
aVFantasy
p2339
aVMystery
p2340
asVMr. Magorium's Wonder Emporium
p2341
(lp2342
VComedy
p2343
aVFamily
p2344
aVFantasy
p2345
asVUp in the Air
p2346
(lp2347
VDrama
p2348
aVRomance
p2349
asVGravity
p2350
(lp2351
VDrama
p2352
aVSci-Fi
p2353
aVThriller
p2354
asVTheir Finest
p2355
(lp2356
VComedy
p2357
aVDrama
p2358
aVRomance
p2359
aVWar
p2360
asVJust Like Heaven
p2361
(lp2362
VComedy
p2363
aVFantasy
p2364
aVRomance
p2365
asVDeck the Halls
p2366
(lp2367
VComedy
p2368
aVFamily
p2369
asVRed
p2370
(lp2371
VAction
p2372
aVComedy
p2373
aVCrime
p2374
aVThriller
p2375
asVRide Along
p2376
(lp2377
VAction
p2378
aVComedy
p2379
aVCrime
p2380
aVRomance
p2381
asVVantage Point
p2382
(lp2383
VCrime
p2384
aVDrama
p2385
aVMystery
p2386
aVThriller
p2387
asVA.I. Artificial Intelligence
p2388
(lp2389
VAdventure
p2390
aVDrama
p2391
aVSci-Fi
p2392
asV8 Mile
p2393
(lp2394
VDrama
p2395
aVMusic
p2396
asVMoana
p2397
(lp2398
VAnimation
p2399
aVAdventure
p2400
aVComedy
p2401
aVFamily
p2402
aVFantasy
p2403
aVMusical
p2404
asVRed Dragon
p2405
(lp2406
VCrime
p2407
aVDrama
p2408
aVThriller
p2409
asVDivergent
p2410
(lp2411
VAdventure
p2412
aVMystery
p2413
aVSci-Fi
p2414
asVOpen Season
p2415
(lp2416
VAnimation
p2417
aVAdventure
p2418
aVComedy
p2419
aVFamily
p2420
asVTyler Perry's Madea's Family Reunion
p2421
(lp2422
VComedy
p2423
aVDrama
p2424
aVRomance
p2425
asVThe Boss Baby
p2426
(lp2427
VAnimation
p2428
aVComedy
p2429
aVFamily
p2430
asVSaw V
p2431
(lp2432
VHorror
p2433
aVMystery
p2434
asVMarvel's The Avengers
p2435
(lp2436
VAction
p2437
aVSci-Fi
p2438
asVThe Last Samurai
p2439
(lp2440
VAction
p2441
aVDrama
p2442
aVHistory
p2443
aVWar
p2444
asVThis Means War
p2445
(lp2446
VAction
p2447
aVComedy
p2448
aVRomance
p2449
asVSpace Cowboys
p2450
(lp2451
VAction
p2452
aVAdventure
p2453
aVThriller
p2454
asVAmerican Wedding
p2455
(lp2456
VComedy
p2457
aVRomance
p2458
asVBoogeyman
p2459
(lp2460
VHorror
p2461
asVSerendipity
p2462
(lp2463
VComedy
p2464
aVRomance
p2465
asVBringing Down the House
p2466
(lp2467
VComedy
p2468
asVSpider-Man 2
p2469
(lp2470
VAction
p2471
aVAdventure
p2472
asVThe Wild Thornberrys
p2473
(lp2474
VAnimation
p2475
aVAdventure
p2476
aVComedy
p2477
aVFamily
p2478
aVFantasy
p2479
asVOcean's Twelve
p2480
(lp2481
VCrime
p2482
aVThriller
p2483
asVEragon
p2484
(lp2485
VAction
p2486
aVAdventure
p2487
aVFamily
p2488
aVFantasy
p2489
asVOrphan
p2490
(lp2491
VHorror
p2492
aVMystery
p2493
aVThriller
p2494
asVBilly Elliot
p2495
(lp2496
VDrama
p2497
aVMusic
p2498
aVRomance
p2499
asVEight Below
p2500
(lp2501
VAdventure
p2502
aVDrama
p2503
aVFamily
p2504
asVCinderella Man
p2505
(lp2506
VBiography
p2507
aVDrama
p2508
aVSport
p2509
asVBad Teacher
p2510
(lp2511
VComedy
p2512
asVAtlantis: The Lost Empire
p2513
(lp2514
VAnimation
p2515
aVAction
p2516
aVAdventure
p2517
aVFamily
p2518
aVFantasy
p2519
aVSci-Fi
p2520
asVThe Conjuring
p2521
(lp2522
VHorror
p2523
aVMystery
p2524
aVThriller
p2525
asVEnough
p2526
(lp2527
VCrime
p2528
aVDrama
p2529
aVThriller
p2530
asVLeatherheads
p2531
(lp2532
VComedy
p2533
aVDrama
p2534
aVRomance
p2535
aVSport
p2536
asVLaw Abiding Citizen
p2537
(lp2538
VCrime
p2539
aVDrama
p2540
aVThriller
p2541
asVThe Adventures of Sharkboy and Lavagirl in 3D
p2542
(lp2543
VAction
p2544
aVAdventure
p2545
aVFamily
p2546
aVFantasy
p2547
asVThe Book of Life (2014)
p2548
(lp2549
VAnimation
p2550
aVAdventure
p2551
aVComedy
p2552
aVFamily
p2553
aVFantasy
p2554
aVHorror
p2555
aVMusical
p2556
aVRomance
p2557
asVAustralia
p2558
(lp2559
VAdventure
p2560
aVDrama
p2561
aVRomance
p2562
aVWar
p2563
asVPirates of the Caribbean: At World's End
p2564
(lp2565
VAction
p2566
aVAdventure
p2567
aVFantasy
p2568
asVObsessed
p2569
(lp2570
VDrama
p2571
aVRomance
p2572
aVThriller
p2573
asVThe Fast and the Furious
p2574
(lp2575
VAction
p2576
aVCrime
p2577
aVThriller
p2578
asVNo Country for Old Men
p2579
(lp2580
VCrime
p2581
aVDrama
p2582
aVThriller
p2583
asVSailor Moon R: The Movie
p2584
(lp2585
VShort
p2586
aVAction
p2587
asVTammy
p2588
(lp2589
VComedy
p2590
aVRomance
p2591
asVAmerica's Sweethearts
p2592
(lp2593
VComedy
p2594
aVRomance
p2595
asVShaft
p2596
(lp2597
VAction
p2598
aVCrime
p2599
aVThriller
p2600
asVThe Emperor's New Groove
p2601
(lp2602
VAnimation
p2603
aVAdventure
p2604
aVComedy
p2605
aVFamily
p2606
aVFantasy
p2607
asVKung Fu Panda 3
p2608
(lp2609
VAnimation
p2610
aVAction
p2611
aVAdventure
p2612
aVComedy
p2613
aVFamily
p2614
aVFantasy
p2615
asVThink Like a Man
p2616
(lp2617
VComedy
p2618
aVRomance
p2619
asVA Walk in the Woods
p2620
(lp2621
VAdventure
p2622
aVBiography
p2623
aVComedy
p2624
aVDrama
p2625
asVParaNorman
p2626
(lp2627
VAnimation
p2628
aVAdventure
p2629
aVComedy
p2630
aVFamily
p2631
aVFantasy
p2632
asVMission: Impossible II
p2633
(lp2634
VAction
p2635
aVAdventure
p2636
aVThriller
p2637
asVPush
p2638
(lp2639
VDrama
p2640
asVThe Musketeer
p2641
(lp2642
VAction
p2643
aVAdventure
p2644
aVRomance
p2645
asVStuart Little 2
p2646
(lp2647
VAnimation
p2648
aVAdventure
p2649
aVComedy
p2650
aVFamily
p2651
aVFantasy
p2652
asVCoach Carter
p2653
(lp2654
VBiography
p2655
aVDrama
p2656
aVSport
p2657
asVTeenage Mutant Ninja Turtles (2014)
p2658
(lp2659
VAction
p2660
aVAdventure
p2661
aVComedy
p2662
aVSci-Fi
p2663
asVThe Omen (2006)
p2664
(lp2665
VHorror
p2666
asVThe Lizzie McGuire Movie
p2667
(lp2668
VAdventure
p2669
aVComedy
p2670
aVFamily
p2671
aVMusic
p2672
aVRomance
p2673
asVPhilomena
p2674
(lp2675
VBiography
p2676
aVDrama
p2677
asVThe Patriot
p2678
(lp2679
VAction
p2680
aVDrama
p2681
aVHistory
p2682
aVWar
p2683
asVHappy Feet Two
p2684
(lp2685
VAnimation
p2686
aVComedy
p2687
aVFamily
p2688
aVMusical
p2689
asVAfter Earth
p2690
(lp2691
VAction
p2692
aVAdventure
p2693
aVSci-Fi
p2694
asVRaees
p2695
(lp2696
VAction
p2697
aVCrime
p2698
aVDrama
p2699
aVThriller
p2700
asVP.S. I Love You
p2701
(lp2702
VDrama
p2703
aVRomance
p2704
asVThe Salesman
p2705
(lp2706
VDrama
p2707
aVThriller
p2708
asVFour Brothers
p2709
(lp2710
VAction
p2711
aVCrime
p2712
aVDrama
p2713
aVMystery
p2714
aVThriller
p2715
asVX2: X-Men United
p2716
(lp2717
VAction
p2718
aVAdventure
p2719
aVFantasy
p2720
aVSci-Fi
p2721
aVThriller
p2722
asVThe Jungle Book (2016)
p2723
(lp2724
VAdventure
p2725
aVDrama
p2726
aVFamily
p2727
aVFantasy
p2728
asVRobin Hood
p2729
(lp2730
VAdventure
p2731
asVThe Magnificent Seven (2016)
p2732
(lp2733
VAction
p2734
aVAdventure
p2735
aVWestern
p2736
asVGarfield: The Movie
p2737
(lp2738
VAnimation
p2739
aVComedy
p2740
aVFamily
p2741
aVFantasy
p2742
asVLion
p2743
(lp2744
VBiography
p2745
aVDrama
p2746
asVMunich
p2747
(lp2748
VCrime
p2749
aVDrama
p2750
aVHistory
p2751
aVThriller
p2752
asV2 Fast 2 Furious
p2753
(lp2754
VAction
p2755
aVCrime
p2756
aVThriller
p2757
asVPrometheus
p2758
(lp2759
VAdventure
p2760
aVMystery
p2761
aVSci-Fi
p2762
asVLa La Land
p2763
(lp2764
VComedy
p2765
aVDrama
p2766
aVMusic
p2767
aVMusical
p2768
aVRomance
p2769
asVSuper 8
p2770
(lp2771
VMystery
p2772
aVSci-Fi
p2773
aVThriller
p2774
asVEternal Sunshine of the Spotless Mind
p2775
(lp2776
VDrama
p2777
aVRomance
p2778
aVSci-Fi
p2779
asVLetters to Juliet
p2780
(lp2781
VComedy
p2782
aVDrama
p2783
aVRomance
p2784
asVTake the Lead
p2785
(lp2786
VDrama
p2787
aVMusic
p2788
asVThe Hunger Games: Mockingjay - Part 1
p2789
(lp2790
VAction
p2791
aVAdventure
p2792
aVSci-Fi
p2793
aVThriller
p2794
asVRock of Ages
p2795
(lp2796
VComedy
p2797
aVDrama
p2798
aVMusical
p2799
aVRomance
p2800
asVDaddy's Home
p2801
(lp2802
VComedy
p2803
aVFamily
p2804
asVBirdman
p2805
(lp2806
VComedy
p2807
aVDrama
p2808
aVRomance
p2809
asVDaredevil
p2810
(lp2811
VAction
p2812
aVCrime
p2813
aVDrama
p2814
aVSci-Fi
p2815
aVThriller
p2816
asVBig Mommas: Like Father, Like Son
p2817
(lp2818
VAction
p2819
aVComedy
p2820
aVCrime
p2821
asVI Now Pronounce You Chuck and Larry
p2822
(lp2823
VComedy
p2824
asVYou Got Served
p2825
(lp2826
VDrama
p2827
aVMusic
p2828
asVFantastic Four
p2829
(lp2830
VAction
p2831
aVAdventure
p2832
aVSci-Fi
p2833
asVBlended
p2834
(lp2835
VComedy
p2836
aVRomance
p2837
asVVertical Limit
p2838
(lp2839
VAction
p2840
aVAdventure
p2841
aVDrama
p2842
aVThriller
p2843
asVNight at the Museum
p2844
(lp2845
VAdventure
p2846
aVComedy
p2847
aVFamily
p2848
aVFantasy
p2849
asVRadio
p2850
(lp2851
VBiography
p2852
aVDrama
p2853
aVSport
p2854
asVThe Queen
p2855
(lp2856
VBiography
p2857
aVDrama
p2858
asVCaptain America: The Winter Soldier
p2859
(lp2860
VAction
p2861
aVAdventure
p2862
aVSci-Fi
p2863
aVThriller
p2864
asVEdge of Tomorrow
p2865
(lp2866
VAction
p2867
aVAdventure
p2868
aVSci-Fi
p2869
asVThe Majestic
p2870
(lp2871
VDrama
p2872
aVRomance
p2873
asVCharlie and the Chocolate Factory
p2874
(lp2875
VAdventure
p2876
aVComedy
p2877
aVFamily
p2878
aVFantasy
p2879
asVCrimson Peak
p2880
(lp2881
VDrama
p2882
aVFantasy
p2883
aVHorror
p2884
aVMystery
p2885
aVRomance
p2886
aVThriller
p2887
asVThe Ladykillers
p2888
(lp2889
VComedy
p2890
aVCrime
p2891
aVThriller
p2892
asVRV
p2893
(lp2894
VAdventure
p2895
aVComedy
p2896
aVFamily
p2897
asVThe Possession
p2898
(lp2899
VHorror
p2900
aVThriller
p2901
asVThe Da Vinci Code
p2902
(lp2903
VMystery
p2904
aVThriller
p2905
asVThe Sisterhood of the Traveling Pants
p2906
(lp2907
VComedy
p2908
aVDrama
p2909
aVFamily
p2910
aVRomance
p2911
asVCollide
p2912
(lp2913
VAction
p2914
aVCrime
p2915
aVThriller
p2916
asVHancock
p2917
(lp2918
VAction
p2919
aVCrime
p2920
aVDrama
p2921
aVFantasy
p2922
asVDefiance
p2923
(lp2924
VAction
p2925
aVDrama
p2926
aVSci-Fi
p2927
asVTrouble with the Curve
p2928
(lp2929
VDrama
p2930
aVSport
p2931
asVHansel and Gretel: Witch Hunters
p2932
(lp2933
VComedy
p2934
aVTalk-Show
p2935
asVWorld War Z
p2936
(lp2937
VAction
p2938
aVAdventure
p2939
aVHorror
p2940
aVSci-Fi
p2941
aVThriller
p2942
asVGood Night, and Good Luck.
p2943
(lp2944
VBiography
p2945
aVDrama
p2946
aVHistory
p2947
asVA Walk Among the Tombstones
p2948
(lp2949
VCrime
p2950
aVDrama
p2951
aVMystery
p2952
aVThriller
p2953
asVJonah: A VeggieTales Movie
p2954
(lp2955
VAnimation
p2956
aVAdventure
p2957
aVComedy
p2958
aVDrama
p2959
aVFamily
p2960
aVMusical
p2961
asVStep Brothers
p2962
(lp2963
VComedy
p2964
asVPatriots Day
p2965
(lp2966
VDrama
p2967
aVHistory
p2968
aVThriller
p2969
asVThe Water Horse: Legend of the Deep
p2970
(lp2971
VAdventure
p2972
aVFamily
p2973
aVFantasy
p2974
asVBarnyard: The Original Party Animals
p2975
(lp2976
VAnimation
p2977
aVComedy
p2978
aVFamily
p2979
asVEnchanted
p2980
(lp2981
VAnimation
p2982
aVComedy
p2983
aVFamily
p2984
aVFantasy
p2985
aVMusical
p2986
aVRomance
p2987
asVWarcraft
p2988
(lp2989
VAction
p2990
aVAdventure
p2991
aVFantasy
p2992
asVOpen Range
p2993
(lp2994
VDrama
p2995
aVRomance
p2996
aVWestern
p2997
asVSausage Party
p2998
(lp2999
VAnimation
p3000
aVAdventure
p3001
aVComedy
p3002
aVFantasy
p3003
asVFree Birds
p3004
(lp3005
VAnimation
p3006
aVAdventure
p3007
aVComedy
p3008
aVFamily
p3009
asVMilk
p3010
(lp3011
VBiography
p3012
aVDrama
p3013
aVHistory
p3014
aVRomance
p3015
asVRat Race
p3016
(lp3017
VAdventure
p3018
aVComedy
p3019
asVThe Sorcerer's Apprentice
p3020
(lp3021
VAction
p3022
aVAdventure
p3023
aVFamily
p3024
aVFantasy
p3025
asVHidden Figures
p3026
(lp3027
VBiography
p3028
aVDrama
p3029
aVHistory
p3030
asVAlvin and the Chipmunks
p3031
(lp3032
VAnimation
p3033
aVComedy
p3034
aVFamily
p3035
aVFantasy
p3036
aVMusic
p3037
asVSplit
p3038
(lp3039
VHorror
p3040
aVThriller
p3041
asVKicking and Screaming
p3042
(lp3043
VComedy
p3044
aVFamily
p3045
aVRomance
p3046
aVSport
p3047
asVThe Brave One
p3048
(lp3049
VCrime
p3050
aVDrama
p3051
aVThriller
p3052
asVJoy
p3053
(lp3054
VDrama
p3055
asVSaw 3D
p3056
(lp3057
VHorror
p3058
aVMystery
p3059
asVThe Expendables 2
p3060
(lp3061
VAction
p3062
aVAdventure
p3063
aVThriller
p3064
asV28 Days Later
p3065
(lp3066
VDrama
p3067
aVHorror
p3068
aVSci-Fi
p3069
aVThriller
p3070
asVThe Maze Runner
p3071
(lp3072
VAction
p3073
aVMystery
p3074
aVSci-Fi
p3075
aVThriller
p3076
asVThe Tourist
p3077
(lp3078
VAction
p3079
aVCrime
p3080
aVRomance
p3081
aVThriller
p3082
asVThe Secret Life of Pets
p3083
(lp3084
VAnimation
p3085
aVAdventure
p3086
aVComedy
p3087
aVFamily
p3088
asVThe Social Network
p3089
(lp3090
VBiography
p3091
aVDrama
p3092
asVDarkness Falls
p3093
(lp3094
VHorror
p3095
aVMystery
p3096
aVThriller
p3097
asVLegend of the Guardians: The Owls of Ga'Hoole
p3098
(lp3099
VAnimation
p3100
aVAction
p3101
aVAdventure
p3102
aVFamily
p3103
aVFantasy
p3104
asVRules of Engagement
p3105
(lp3106
VComedy
p3107
aVRomance
p3108
asVProject Almanac
p3109
(lp3110
VSci-Fi
p3111
aVThriller
p3112
asVIndependence Day: Resurgence
p3113
(lp3114
VAction
p3115
aVAdventure
p3116
aVSci-Fi
p3117
asVSherlock Holmes: A Game of Shadows
p3118
(lp3119
VAction
p3120
aVAdventure
p3121
aVCrime
p3122
aVMystery
p3123
aVThriller
p3124
asVThe Dilemma
p3125
(lp3126
VComedy
p3127
aVDrama
p3128
asVJason Bourne
p3129
g54
sVThe Space Between Us
p3130
(lp3131
VAdventure
p3132
aVDrama
p3133
aVRomance
p3134
aVSci-Fi
p3135
asVAnger Management
p3136
(lp3137
VComedy
p3138
aVRomance
p3139
asVBaby Mama
p3140
(lp3141
VComedy
p3142
aVRomance
p3143
asVRun All Night
p3144
(lp3145
VAction
p3146
aVCrime
p3147
aVDrama
p3148
aVThriller
p3149
asVThirteen Days
p3150
(lp3151
VDrama
p3152
aVHistory
p3153
aVThriller
p3154
asVTransformers
p3155
(lp3156
VAction
p3157
aVAdventure
p3158
aVSci-Fi
p3159
asVMadagascar: Escape 2 Africa
p3160
(lp3161
VAnimation
p3162
aVAction
p3163
aVAdventure
p3164
aVComedy
p3165
aVFamily
p3166
asVWhat a Girl Wants
p3167
(lp3168
VComedy
p3169
aVDrama
p3170
aVFamily
p3171
aVRomance
p3172
asVSwordfish
p3173
(lp3174
VAction
p3175
aVCrime
p3176
aVThriller
p3177
asVA Quiet Passion
p3178
(lp3179
VBiography
p3180
aVDrama
p3181
asVThe Jungle Book 2
p3182
(lp3183
VAnimation
p3184
aVAdventure
p3185
aVFamily
p3186
aVMusical
p3187
asVDate Movie
p3188
(lp3189
VComedy
p3190
aVRomance
p3191
asVMiracle
p3192
(lp3193
VBiography
p3194
aVDrama
p3195
aVHistory
p3196
aVSport
p3197
asVThe Resurrection of Gavin Stone 
p3198
(lp3199
VComedy
p3200
aVDrama
p3201
aVFamily
p3202
aVRomance
p3203
asVThe Tale of Despereaux
p3204
(lp3205
VAnimation
p3206
aVAdventure
p3207
aVComedy
p3208
aVFamily
p3209
aVFantasy
p3210
asVBend It Like Beckham
p3211
(lp3212
VComedy
p3213
aVDrama
p3214
aVRomance
p3215
aVSport
p3216
asVThe Happening
p3217
(lp3218
VSci-Fi
p3219
aVThriller
p3220
asVThe Change-Up
p3221
(lp3222
VComedy
p3223
aVFantasy
p3224
asVThe Animal
p3225
(lp3226
VComedy
p3227
aVSci-Fi
p3228
asVThe Nativity Story
p3229
(lp3230
VDrama
p3231
aVFamily
p3232
aVFantasy
p3233
asVBatman Begins
p3234
(lp3235
VAction
p3236
aVAdventure
p3237
asVShrek the Third
p3238
(lp3239
VAnimation
p3240
aVAdventure
p3241
aVComedy
p3242
aVFamily
p3243
aVFantasy
p3244
asVThe Last Airbender
p3245
(lp3246
VAction
p3247
aVAdventure
p3248
aVFamily
p3249
aVFantasy
p3250
asVOz The Great and Powerful
p3251
(lp3252
VAdventure
p3253
aVFamily
p3254
aVFantasy
p3255
asVMonsters Vs. Aliens
p3256
(lp3257
VAnimation
p3258
aVAction
p3259
aVAdventure
p3260
aVComedy
p3261
aVFamily
p3262
aVSci-Fi
p3263
asVThe Art of War
p3264
(lp3265
VAction
p3266
aVAdventure
p3267
aVCrime
p3268
aVThriller
p3269
asVThe Bye Bye Man
p3270
(lp3271
VHorror
p3272
aVThriller
p3273
asVSt. Vincent
p3274
(lp3275
VComedy
p3276
aVDrama
p3277
asVBlack Swan
p3278
(lp3279
VDrama
p3280
aVThriller
p3281
asVI Am Sam
p3282
(lp3283
VDrama
p3284
asVThe Five-Year Engagement
p3285
(lp3286
VComedy
p3287
aVRomance
p3288
asVDuckweed
p3289
(lp3290
VComedy
p3291
aVDrama
p3292
aVFantasy
p3293
asV2 Guns
p3294
(lp3295
VAction
p3296
aVComedy
p3297
aVCrime
p3298
aVThriller
p3299
asVDrumline
p3300
(lp3301
VComedy
p3302
aVDrama
p3303
aVRomance
p3304
aVMusic
p3305
asVDie Another Day
p3306
(lp3307
VAction
p3308
aVAdventure
p3309
aVThriller
p3310
asVHotel Transylvania
p3311
(lp3312
VAnimation
p3313
aVComedy
p3314
aVFamily
p3315
aVFantasy
p3316
asVWhat to Expect When You're Expecting
p3317
(lp3318
VComedy
p3319
aVDrama
p3320
aVRomance
p3321
asVSpirit: Stallion of the Cimarron
p3322
(lp3323
VAnimation
p3324
aVAdventure
p3325
aVFamily
p3326
aVWestern
p3327
asVBaahubali 2: The Conclusion
p3328
(lp3329
VAction
p3330
aVAdventure
p3331
aVDrama
p3332
aVFantasy
p3333
asVSky Captain and the World of Tomorrow
p3334
(lp3335
VAction
p3336
aVAdventure
p3337
aVMystery
p3338
aVSci-Fi
p3339
aVThriller
p3340
asVTropic Thunder
p3341
(lp3342
VAction
p3343
aVComedy
p3344
asVMystic River
p3345
(lp3346
VCrime
p3347
aVDrama
p3348
aVMystery
p3349
aVThriller
p3350
asVDawn of the Dead
p3351
(lp3352
VAction
p3353
aVHorror
p3354
aVThriller
p3355
asVColombiana
p3356
(lp3357
VAction
p3358
aVCrime
p3359
aVDrama
p3360
aVThriller
p3361
asVSicko
p3362
(lp3363
VDocumentary
p3364
aVDrama
p3365
asVCharlotte's Web (2006)
p3366
(lp3367
VComedy
p3368
aVFamily
p3369
aVFantasy
p3370
asVDuplicity
p3371
(lp3372
VComedy
p3373
aVCrime
p3374
aVRomance
p3375
aVThriller
p3376
asVTexas Chainsaw 3D
p3377
(lp3378
VHorror
p3379
aVThriller
p3380
asVGoing in Style (2017)
p3381
(lp3382
VComedy
p3383
aVCrime
p3384
asVThe Departed
p3385
(lp3386
VCrime
p3387
aVDrama
p3388
aVThriller
p3389
asVChef
p3390
(lp3391
VComedy
p3392
aVDrama
p3393
asVUntraceable
p3394
(lp3395
VCrime
p3396
aVMystery
p3397
aVThriller
p3398
asVDeadpool
p3399
(lp3400
VAction
p3401
aVAdventure
p3402
aVComedy
p3403
aVRomance
p3404
aVSci-Fi
p3405
asVMuppets Most Wanted
p3406
(lp3407
VAdventure
p3408
aVComedy
p3409
aVCrime
p3410
aVFamily
p3411
aVMusical
p3412
aVMystery
p3413
asVThe Grudge
p3414
(lp3415
VHorror
p3416
aVMystery
p3417
aVThriller
p3418
asVYou, Me and Dupree
p3419
(lp3420
VComedy
p3421
aVRomance
p3422
asVPlanes: Fire & Rescue
p3423
(lp3424
VAnimation
p3425
aVAdventure
p3426
aVComedy
p3427
aVFamily
p3428
asVThe Smurfs 2
p3429
(lp3430
VAnimation
p3431
aVAdventure
p3432
aVComedy
p3433
aVFamily
p3434
aVFantasy
p3435
asVBad Moms
p3436
(lp3437
VComedy
p3438
asVHulk
p3439
(lp3440
VAction
p3441
aVSci-Fi
p3442
asVBeauty Shop
p3443
(lp3444
VComedy
p3445
asVKate and Leopold
p3446
(lp3447
VComedy
p3448
aVFantasy
p3449
aVRomance
p3450
asVStar Wars: Episode II - Attack of the Clones
p3451
(lp3452
VAction
p3453
aVAdventure
p3454
aVFantasy
p3455
aVSci-Fi
p3456
asVHeist
p3457
(lp3458
VAction
p3459
aVCrime
p3460
aVThriller
p3461
asVSleepless
p3462
(lp3463
VAction
p3464
aVCrime
p3465
aVThriller
p3466
asVDrive (2011)
p3467
(lp3468
VCrime
p3469
aVDrama
p3470
asVUnderworld: Evolution
p3471
(lp3472
VAction
p3473
aVAdventure
p3474
aVFantasy
p3475
aVSci-Fi
p3476
aVThriller
p3477
asVThe Royal Tenenbaums
p3478
(lp3479
VComedy
p3480
aVDrama
p3481
asVDeja Vu
p3482
(lp3483
VAction
p3484
aVSci-Fi
p3485
aVThriller
p3486
asVLittle Nicky
p3487
(lp3488
VComedy
p3489
aVFantasy
p3490
asVKevin Hart: Let Me Explain
p3491
(lp3492
VDocumentary
p3493
aVComedy
p3494
asVTitan A.E.
p3495
(lp3496
VAnimation
p3497
aVAction
p3498
aVAdventure
p3499
aVFamily
p3500
aVSci-Fi
p3501
asVCatwoman
p3502
(lp3503
VAction
p3504
aVCrime
p3505
aVFantasy
p3506
aVThriller
p3507
asVPan's Labyrinth
p3508
(lp3509
VDrama
p3510
aVFantasy
p3511
aVWar
p3512
asVWhen a Stranger Calls
p3513
(lp3514
VHorror
p3515
aVThriller
p3516
asVShallow Hal
p3517
(lp3518
VComedy
p3519
aVDrama
p3520
aVFantasy
p3521
aVRomance
p3522
asVThe Final Destination
p3523
(lp3524
VHorror
p3525
aVThriller
p3526
asVThe Lord of the Rings: The Return of the King
p3527
(lp3528
VAdventure
p3529
aVDrama
p3530
aVFantasy
p3531
asVRings
p3532
(lp3533
VDrama
p3534
aVHorror
p3535
asVEpic Movie
p3536
(lp3537
VAdventure
p3538
aVComedy
p3539
asVThe Vow
p3540
(lp3541
VDrama
p3542
aVRomance
p3543
asVThe Circle (2017)
p3544
(lp3545
VDrama
p3546
aVSci-Fi
p3547
aVThriller
p3548
asVThe Bank Job
p3549
(lp3550
VCrime
p3551
aVDrama
p3552
aVRomance
p3553
aVThriller
p3554
asVWallace and Gromit: The Curse of the Were-Rabbit
p3555
(lp3556
VComedy
p3557
asVPublic Enemies
p3558
(lp3559
VBiography
p3560
aVCrime
p3561
aVDrama
p3562
aVHistory
p3563
aVRomance
p3564
asVDear John
p3565
(lp3566
VDrama
p3567
aVRomance
p3568
aVWar
p3569
asVSaw VI
p3570
(lp3571
VHorror
p3572
aVMystery
p3573
asVThe Nut Job
p3574
(lp3575
VAnimation
p3576
aVAdventure
p3577
aVComedy
p3578
aVFamily
p3579
asVGreen Zone
p3580
(lp3581
VAction
p3582
aVDrama
p3583
aVThriller
p3584
aVWar
p3585
asVPersonal Shopper
p3586
(lp3587
VDrama
p3588
aVMystery
p3589
aVThriller
p3590
asVDiary of a Wimpy Kid: Dog Days
p3591
(lp3592
VComedy
p3593
aVFamily
p3594
asVFantastic Beasts and Where To Find Them
p3595
(lp3596
VAdventure
p3597
aVFamily
p3598
aVFantasy
p3599
asVScream 3
p3600
(lp3601
VHorror
p3602
aVMystery
p3603
asVJarhead
p3604
(lp3605
VAction
p3606
aVDrama
p3607
aVWar
p3608
asVKong: Skull Island
p3609
(lp3610
VAction
p3611
aVAdventure
p3612
aVFantasy
p3613
aVSci-Fi
p3614
asVThe Love Guru
p3615
(lp3616
VComedy
p3617
aVRomance
p3618
aVSport
p3619
asVThe Twilight Saga: Breaking Dawn Part 2
p3620
(lp3621
VDocumentary
p3622
asVThe Mexican
p3623
(lp3624
VAdventure
p3625
aVComedy
p3626
aVCrime
p3627
aVRomance
p3628
asVPacific Rim
p3629
(lp3630
VAction
p3631
aVAdventure
p3632
aVSci-Fi
p3633
asVThe Twilight Saga: Breaking Dawn Part 1
p3634
(lp3635
VShort
p3636
asVSnow Day
p3637
(lp3638
VAdventure
p3639
aVComedy
p3640
aVFamily
p3641
asVThe Smurfs
p3642
(lp3643
VAnimation
p3644
aVAdventure
p3645
aVComedy
p3646
aVFamily
p3647
aVFantasy
p3648
asVGet On Up
p3649
(lp3650
VBiography
p3651
aVDrama
p3652
aVMusic
p3653
asVBrown Sugar
p3654
(lp3655
VRomance
p3656
aVComedy
p3657
aVDrama
p3658
aVMusic
p3659
asVDjango Unchained
p3660
(lp3661
VDrama
p3662
aVWestern
p3663
asVWithout a Paddle
p3664
(lp3665
VAdventure
p3666
aVComedy
p3667
aVMystery
p3668
asVLegally Blonde 2: Red, White and Blonde
p3669
(lp3670
VComedy
p3671
asVTurbo
p3672
(lp3673
VAnimation
p3674
aVAdventure
p3675
aVComedy
p3676
aVFamily
p3677
aVSci-Fi
p3678
aVSport
p3679
asVUndercover Brother
p3680
(lp3681
VAction
p3682
aVComedy
p3683
asVPercy Jackson & The Olympians: The Lightning Thief
p3684
(lp3685
VAdventure
p3686
aVFamily
p3687
aVFantasy
p3688
asVThe Nutty Professor II: The Klumps
p3689
(lp3690
VComedy
p3691
aVRomance
p3692
aVSci-Fi
p3693
asVThe Forgotten
p3694
(lp3695
VCrime
p3696
aVDrama
p3697
aVMystery
p3698
asVIdentity
p3699
(lp3700
VMystery
p3701
aVThriller
p3702
asVThe Mist
p3703
(lp3704
VDrama
p3705
aVHorror
p3706
asVPrecious: Based on the Novel "Push" by Sapphire
p3707
(lp3708
VDrama
p3709
asVAutumn in New York
p3710
(lp3711
VDrama
p3712
aVRomance
p3713
asVRed 2
p3714
(lp3715
VAction
p3716
aVComedy
p3717
aVCrime
p3718
aVThriller
p3719
asVShutter Island
p3720
(lp3721
VMystery
p3722
aVThriller
p3723
asVDoctor Strange
p3724
(lp3725
VAction
p3726
aVAdventure
p3727
aVFantasy
p3728
aVSci-Fi
p3729
asVResident Evil: Retribution
p3730
(lp3731
VAction
p3732
aVHorror
p3733
aVSci-Fi
p3734
aVThriller
p3735
asVMeet the Robinsons
p3736
(lp3737
VAnimation
p3738
aVAdventure
p3739
aVComedy
p3740
aVFamily
p3741
aVSci-Fi
p3742
asVPitch Perfect 2
p3743
(lp3744
VComedy
p3745
aVMusic
p3746
asVThe Prince and Me
p3747
(lp3748
VComedy
p3749
aVFamily
p3750
aVRomance
p3751
asVYogi Bear
p3752
(lp3753
VAnimation
p3754
aVAdventure
p3755
aVComedy
p3756
aVFamily
p3757
asVInterstellar
p3758
(lp3759
VAdventure
p3760
aVDrama
p3761
aVSci-Fi
p3762
asVBorn in China
p3763
(lp3764
VDocumentary
p3765
asVFireproof
p3766
(lp3767
VDrama
p3768
aVRomance
p3769
asVLittle Miss Sunshine
p3770
(lp3771
VComedy
p3772
aVDrama
p3773
asVSinbad: Legend of the Seven Seas
p3774
(lp3775
VAnimation
p3776
aVAdventure
p3777
aVComedy
p3778
aVDrama
p3779
aVFamily
p3780
aVFantasy
p3781
aVRomance
p3782
asVThe Count of Monte Cristo
p3783
(lp3784
VAction
p3785
aVAdventure
p3786
aVDrama
p3787
aVRomance
p3788
aVThriller
p3789
asV21 and Over
p3790
(lp3791
VComedy
p3792
asVFailure to Launch
p3793
(lp3794
VComedy
p3795
aVRomance
p3796
asVMiracles from Heaven
p3797
(lp3798
VBiography
p3799
aVDrama
p3800
aVFamily
p3801
asVCorky Romano
p3802
(lp3803
VComedy
p3804
aVCrime
p3805
asVWild Hogs
p3806
(lp3807
VAction
p3808
aVAdventure
p3809
aVComedy
p3810
asVDown to You
p3811
(lp3812
VComedy
p3813
aVDrama
p3814
aVRomance
p3815
asVWalking with Dinosaurs
p3816
(lp3817
VAnimation
p3818
aVAdventure
p3819
aVFamily
p3820
asVMeet the Fockers
p3821
(lp3822
VComedy
p3823
aVRomance
p3824
asVXXX
p3825
(lp3826
VAction
p3827
aVAdventure
p3828
aVThriller
p3829
asVThe Devil Inside
p3830
(lp3831
VHorror
p3832
asVChimpanzee
p3833
(lp3834
VDocumentary
p3835
asVNeed for Speed
p3836
(lp3837
VAction
p3838
aVCrime
p3839
aVDrama
p3840
aVThriller
p3841
asVMachete
p3842
(lp3843
VAction
p3844
aVCrime
p3845
aVThriller
p3846
asVThe Prison
p3847
(lp3848
VAction
p3849
aVCrime
p3850
asVThe Chronicles of Narnia: The Voyage of the Dawn Treader
p3851
(lp3852
VAdventure
p3853
aVFamily
p3854
aVFantasy
p3855
asVElla Enchanted
p3856
(lp3857
VComedy
p3858
aVFamily
p3859
aVFantasy
p3860
aVRomance
p3861
asVWhat Lies Beneath
p3862
(lp3863
VDrama
p3864
aVFantasy
p3865
aVHorror
p3866
aVMystery
p3867
aVThriller
p3868
asVHow to Train Your Dragon
p3869
(lp3870
VAnimation
p3871
aVAction
p3872
aVAdventure
p3873
aVComedy
p3874
aVFamily
p3875
aVFantasy
p3876
asVPhoenix Forgotten
p3877
(lp3878
VHorror
p3879
aVMystery
p3880
aVSci-Fi
p3881
asVRisen
p3882
(lp3883
VAction
p3884
aVAdventure
p3885
aVDrama
p3886
aVMystery
p3887
asVThe Belko Experiment
p3888
(lp3889
VAction
p3890
aVHorror
p3891
aVThriller
p3892
asVSex and the City
p3893
(lp3894
VComedy
p3895
aVDrama
p3896
aVRomance
p3897
asVTed 2
p3898
(lp3899
VComedy
p3900
asVGodzilla (2014)
p3901
(lp3902
VAction
p3903
aVAdventure
p3904
aVSci-Fi
p3905
aVThriller
p3906
asVThe Fate of the Furious
p3907
(lp3908
VAction
p3909
aVAdventure
p3910
aVCrime
p3911
aVThriller
p3912
asVThe Dictator
p3913
(lp3914
VComedy
p3915
asVThe Family Stone
p3916
(lp3917
VComedy
p3918
aVDrama
p3919
aVRomance
p3920
asVThe SpongeBob SquarePants Movie
p3921
(lp3922
VAnimation
p3923
aVAdventure
p3924
aVComedy
p3925
aVFamily
p3926
aVFantasy
p3927
asVHarry Potter and the Goblet of Fire
p3928
(lp3929
VAdventure
p3930
aVFamily
p3931
aVFantasy
p3932
aVMystery
p3933
asVHide and Seek
p3934
(lp3935
VDrama
p3936
aVHorror
p3937
aVMystery
p3938
aVThriller
p3939
asVI Love You, Man
p3940
(lp3941
VComedy
p3942
aVRomance
p3943
asVThe Reader
p3944
(lp3945
VDrama
p3946
aVRomance
p3947
asVThe Roommate
p3948
(lp3949
VDrama
p3950
aVHorror
p3951
aVThriller
p3952
asVSweet Home Alabama
p3953
(lp3954
VComedy
p3955
aVRomance
p3956
asVHalloween (2007)
p3957
(lp3958
VHorror
p3959
asVLone Survivor
p3960
(lp3961
VAction
p3962
aVBiography
p3963
aVDrama
p3964
aVThriller
p3965
aVWar
p3966
asVCrank
p3967
(lp3968
VAction
p3969
aVCrime
p3970
aVThriller
p3971
asVSpeed Racer
p3972
(lp3973
VAction
p3974
aVFamily
p3975
aVSci-Fi
p3976
aVSport
p3977
asVHigh School Musical 3: Senior Year
p3978
(lp3979
VComedy
p3980
aVDrama
p3981
aVFamily
p3982
aVMusic
p3983
aVMusical
p3984
aVRomance
p3985
asVLand of the Lost
p3986
(lp3987
VAdventure
p3988
aVComedy
p3989
aVSci-Fi
p3990
asVThe Watch
p3991
(lp3992
VAction
p3993
aVComedy
p3994
aVSci-Fi
p3995
asVThe Grand Budapest Hotel
p3996
(lp3997
VAdventure
p3998
aVComedy
p3999
aVDrama
p4000
asVSaw IV
p4001
(lp4002
VHorror
p4003
aVMystery
p4004
asVBattlefield Earth
p4005
(lp4006
VAction
p4007
aVAdventure
p4008
aVSci-Fi
p4009
asVPredators
p4010
(lp4011
VAction
p4012
aVAdventure
p4013
aVSci-Fi
p4014
aVThriller
p4015
asVHigh Fidelity
p4016
(lp4017
VComedy
p4018
aVDrama
p4019
aVMusic
p4020
aVRomance
p4021
asV(500) Days of Summer
p4022
(lp4023
VComedy
p4024
aVDrama
p4025
aVRomance
p4026
asVEscape From Planet Earth
p4027
(lp4028
VAnimation
p4029
aVAdventure
p4030
aVComedy
p4031
aVFamily
p4032
aVSci-Fi
p4033
asVGrown Ups 2
p4034
(lp4035
VComedy
p4036
asVKingsman: The Secret Service
p4037
(lp4038
VAction
p4039
aVAdventure
p4040
aVComedy
p4041
aVThriller
p4042
asVTroy
p4043
(lp4044
VAdventure
p4045
asVMemoirs of a Geisha
p4046
(lp4047
VDrama
p4048
aVRomance
p4049
asVPrince of Persia: The Sands of Time
p4050
(lp4051
VAction
p4052
aVAdventure
p4053
aVFantasy
p4054
aVRomance
p4055
asVWe Bought a Zoo
p4056
(lp4057
VComedy
p4058
aVDrama
p4059
aVFamily
p4060
asVSin City
p4061
(lp4062
VCrime
p4063
aVThriller
p4064
asVAmerican Pie 2
p4065
(lp4066
VComedy
p4067
asVJackass: The Movie
p4068
(lp4069
VDocumentary
p4070
aVAction
p4071
aVComedy
p4072
asVMovie Title (click to view)
p4073
g54
sVCapote
p4074
(lp4075
VBiography
p4076
aVCrime
p4077
aVDrama
p4078
aVHistory
p4079
asVThe Angry Birds Movie
p4080
(lp4081
VAnimation
p4082
aVAction
p4083
aVAdventure
p4084
aVComedy
p4085
aVFamily
p4086
asVKnowing
p4087
(lp4088
VDrama
p4089
aVMystery
p4090
aVSci-Fi
p4091
aVThriller
p4092
asVOut of Time
p4093
(lp4094
VCrime
p4095
aVDrama
p4096
aVMystery
p4097
aVThriller
p4098
asVThe Town
p4099
(lp4100
VCrime
p4101
aVDrama
p4102
aVThriller
p4103
asVStar Trek Beyond
p4104
(lp4105
VAction
p4106
aVAdventure
p4107
aVSci-Fi
p4108
aVThriller
p4109
asVThere Will Be Blood
p4110
(lp4111
VDrama
p4112
aVHistory
p4113
asVThe Man From U.N.C.L.E.
p4114
(lp4115
VAction
p4116
aVAdventure
p4117
aVComedy
p4118
asVJohn Wick
p4119
(lp4120
VAction
p4121
aVCrime
p4122
aVThriller
p4123
asVThe Good Dinosaur
p4124
(lp4125
VAnimation
p4126
aVAdventure
p4127
aVComedy
p4128
aVDrama
p4129
aVFamily
p4130
aVFantasy
p4131
asVDiary of a Wimpy Kid: Rodrick Rules
p4132
(lp4133
VComedy
p4134
aVFamily
p4135
asVShe's the Man
p4136
(lp4137
VComedy
p4138
aVRomance
p4139
aVSport
p4140
asVBurn After Reading
p4141
(lp4142
VComedy
p4143
aVDrama
p4144
asVJohnny English
p4145
(lp4146
VAction
p4147
aVAdventure
p4148
aVComedy
p4149
asVNow You See Me
p4150
(lp4151
VCrime
p4152
aVMystery
p4153
aVThriller
p4154
asVRambo
p4155
(lp4156
VAction
p4157
aVAdventure
p4158
aVDrama
p4159
asVThe Men Who Stare at Goats
p4160
(lp4161
VComedy
p4162
aVWar
p4163
asVThe Skulls
p4164
(lp4165
VAction
p4166
aVCrime
p4167
aVDrama
p4168
aVThriller
p4169
asVMonsters University
p4170
(lp4171
VAnimation
p4172
aVAdventure
p4173
aVComedy
p4174
aVFamily
p4175
aVFantasy
p4176
asVThe Dukes of Hazzard
p4177
(lp4178
VAction
p4179
aVComedy
p4180
asVMidnight in Paris
p4181
(lp4182
VComedy
p4183
aVFantasy
p4184
aVRomance
p4185
asVHostel
p4186
(lp4187
VHorror
p4188
asVMr. Bean's Holiday
p4189
(lp4190
VComedy
p4191
aVFamily
p4192
asVPixels
p4193
(lp4194
VAction
p4195
aVComedy
p4196
aVSci-Fi
p4197
asVThe Good Shepherd
p4198
(lp4199
VDrama
p4200
aVHistory
p4201
aVThriller
p4202
asVThe Forest
p4203
(lp4204
VHorror
p4205
aVMystery
p4206
aVThriller
p4207
asVThe Prestige
p4208
(lp4209
VDrama
p4210
aVMystery
p4211
aVSci-Fi
p4212
aVThriller
p4213
asVMad Max: Fury Road
p4214
(lp4215
VAction
p4216
aVAdventure
p4217
aVSci-Fi
p4218
aVThriller
p4219
asVResident Evil
p4220
(lp4221
VAction
p4222
aVHorror
p4223
aVSci-Fi
p4224
asVNo Strings Attached
p4225
(lp4226
VComedy
p4227
aVRomance
p4228
asVGet Smart
p4229
(lp4230
VAction
p4231
aVAdventure
p4232
aVComedy
p4233
asVCollateral Beauty
p4234
(lp4235
VDrama
p4236
aVRomance
p4237
asVA Christmas Carol (2009)
p4238
(lp4239
VAnimation
p4240
aVDrama
p4241
aVFamily
p4242
aVFantasy
p4243
asVMax Payne
p4244
(lp4245
VAction
p4246
aVCrime
p4247
aVDrama
p4248
aVMystery
p4249
aVThriller
p4250
asVThe Ringer
p4251
(lp4252
VComedy
p4253
aVSport
p4254
asVTommy's Honour
p4255
(lp4256
VBiography
p4257
aVDrama
p4258
aVRomance
p4259
aVSport
p4260
asVHerbie: Fully Loaded
p4261
(lp4262
VDocumentary
p4263
asVSafe Haven
p4264
(lp4265
VDrama
p4266
aVRomance
p4267
aVThriller
p4268
asVFreedom Writers
p4269
(lp4270
VBiography
p4271
aVCrime
p4272
aVDrama
p4273
asVThe Expendables
p4274
(lp4275
VAction
p4276
aVAdventure
p4277
aVThriller
p4278
asVThe Ides of March
p4279
(lp4280
VDrama
p4281
asVLife as We Know It
p4282
(lp4283
VComedy
p4284
aVFamily
p4285
aVSci-Fi
p4286
asVBlow
p4287
(lp4288
VBiography
p4289
aVCrime
p4290
aVDrama
p4291
asVSecondhand Lions
p4292
(lp4293
VComedy
p4294
aVDrama
p4295
aVFamily
p4296
asVFinal Destination 2
p4297
(lp4298
VHorror
p4299
aVThriller
p4300
asVAlmost Famous
p4301
(lp4302
VAdventure
p4303
aVComedy
p4304
aVDrama
p4305
aVMusic
p4306
asVHow Do You Know
p4307
(lp4308
VComedy
p4309
aVDrama
p4310
aVRomance
p4311
asVMiss Congeniality 2: Armed and Fabulous
p4312
(lp4313
VAction
p4314
aVComedy
p4315
aVCrime
p4316
asVHop
p4317
(lp4318
VAnimation
p4319
aVAdventure
p4320
aVComedy
p4321
aVFamily
p4322
aVFantasy
p4323
asVThe Red Turtle
p4324
(lp4325
VAnimation
p4326
aVFantasy
p4327
asVT2: Trainspotting
p4328
(lp4329
VDrama
p4330
asVRogue One: A Star Wars Story
p4331
(lp4332
VAction
p4333
aVAdventure
p4334
aVSci-Fi
p4335
asVTreasure Planet
p4336
(lp4337
VAnimation
p4338
aVAdventure
p4339
aVFamily
p4340
aVSci-Fi
p4341
asVDawn of the Planet of the Apes
p4342
(lp4343
VAction
p4344
aVAdventure
p4345
aVDrama
p4346
aVSci-Fi
p4347
asVThe Score
p4348
(lp4349
VCrime
p4350
aVDrama
p4351
aVThriller
p4352
asVYours, Mine and Ours
p4353
(lp4354
VComedy
p4355
aVFamily
p4356
aVFantasy
p4357
aVRomance
p4358
asVStep Up Revolution
p4359
(lp4360
VDrama
p4361
aVMusic
p4362
aVRomance
p4363
asVThe Call
p4364
(lp4365
VCrime
p4366
aVThriller
p4367
asVUnstoppable
p4368
(lp4369
VAction
p4370
aVThriller
p4371
asVDan in Real Life
p4372
(lp4373
VComedy
p4374
aVDrama
p4375
aVRomance
p4376
asVBeauty and the Beast (3D)
p4377
(lp4378
VFamily
p4379
aVFantasy
p4380
aVMusical
p4381
aVRomance
p4382
asVRailroad Tigers
p4383
(lp4384
VAction
p4385
aVComedy
p4386
aVWar
p4387
asVProject X
p4388
(lp4389
VComedy
p4390
asVTwo Weeks Notice
p4391
(lp4392
VComedy
p4393
aVRomance
p4394
asVDracula Untold
p4395
(lp4396
VAction
p4397
aVDrama
p4398
aVFantasy
p4399
aVHorror
p4400
aVWar
p4401
asVJulie & Julia
p4402
(lp4403
VBiography
p4404
aVDrama
p4405
aVRomance
p4406
asVMan of the Year
p4407
(lp4408
VComedy
p4409
aVDrama
p4410
aVRomance
p4411
aVThriller
p4412
asVExit Wounds
p4413
(lp4414
VAction
p4415
aVComedy
p4416
aVCrime
p4417
aVDrama
p4418
aVThriller
p4419
asVCasino Royale
p4420
(lp4421
VAction
p4422
aVAdventure
p4423
aVThriller
p4424
asVYear One
p4425
(lp4426
VAdventure
p4427
aVComedy
p4428
asVThe Day the Earth Stood Still (2008)
p4429
(lp4430
VDrama
p4431
aVSci-Fi
p4432
aVThriller
p4433
asVE.T. (20th Anniversary)
p4434
(lp4435
VMusic
p4436
asVFunny People
p4437
(lp4438
VComedy
p4439
aVDrama
p4440
asVThe Butterfly Effect
p4441
(lp4442
VSci-Fi
p4443
aVThriller
p4444
asVUnknown
p4445
(lp4446
VAction
p4447
aVMystery
p4448
aVThriller
p4449
asVResident Evil: Afterlife
p4450
(lp4451
VAction
p4452
aVHorror
p4453
aVSci-Fi
p4454
aVThriller
p4455
asVHitman
p4456
(lp4457
VAction
p4458
aVCrime
p4459
aVDrama
p4460
aVThriller
p4461
asVThe Visit
p4462
(lp4463
VHorror
p4464
aVThriller
p4465
asVSherlock Holmes
p4466
(lp4467
VAction
p4468
aVAdventure
p4469
aVCrime
p4470
aVMystery
p4471
aVThriller
p4472
asVThe Boy (2016)
p4473
(lp4474
VHorror
p4475
aVMystery
p4476
aVThriller
p4477
asVHome (2015)
p4478
(lp4479
VAnimation
p4480
aVAdventure
p4481
aVComedy
p4482
aVFamily
p4483
aVFantasy
p4484
aVSci-Fi
p4485
asVMarmaduke
p4486
(lp4487
VComedy
p4488
aVFamily
p4489
asVSideways
p4490
(lp4491
VComedy
p4492
aVDrama
p4493
aVRomance
p4494
asVDiary of a Wimpy Kid
p4495
(lp4496
VComedy
p4497
aVFamily
p4498
asVGulliver's Travels
p4499
(lp4500
VAdventure
p4501
aVComedy
p4502
aVFamily
p4503
aVFantasy
p4504
asVX-Men: First Class
p4505
(lp4506
VAction
p4507
aVAdventure
p4508
aVSci-Fi
p4509
asVShrek 2
p4510
(lp4511
VAnimation
p4512
aVAdventure
p4513
aVComedy
p4514
aVFamily
p4515
aVFantasy
p4516
aVRomance
p4517
asVAmerican Hustle
p4518
(lp4519
VCrime
p4520
aVDrama
p4521
asVRush Hour 2
p4522
(lp4523
VAction
p4524
aVComedy
p4525
aVCrime
p4526
aVThriller
p4527
asVMusic and Lyrics
p4528
(lp4529
VComedy
p4530
aVMusic
p4531
aVRomance
p4532
asVGhost Ship
p4533
(lp4534
VHorror
p4535
asVConfidential Assignment
p4536
(lp4537
VAction
p4538
aVComedy
p4539
aVDrama
p4540
asVDid You Hear About the Morgans?
p4541
(lp4542
VComedy
p4543
aVDrama
p4544
aVRomance
p4545
asVStep Up 3-D
p4546
(lp4547
VDrama
p4548
aVMusic
p4549
aVRomance
p4550
asVThe Watcher
p4551
(lp4552
VHorror
p4553
aVThriller
p4554
asVPokemon: The Movie 2000
p4555
(lp4556
VAnimation
p4557
aVAction
p4558
aVAdventure
p4559
aVFamily
p4560
aVFantasy
p4561
asVThe Hobbit: The Battle of the Five Armies
p4562
(lp4563
VAdventure
p4564
aVFantasy
p4565
asVSalt
p4566
(lp4567
VAction
p4568
aVCrime
p4569
aVMystery
p4570
aVThriller
p4571
asVHot Tub Time Machine
p4572
(lp4573
VComedy
p4574
aVSci-Fi
p4575
asVNoah
p4576
(lp4577
VAction
p4578
aVAdventure
p4579
aVDrama
p4580
asVNight at the Museum: Secret of the Tomb
p4581
(lp4582
VAdventure
p4583
aVComedy
p4584
aVFamily
p4585
aVFantasy
p4586
asVEverest (2015)
p4587
(lp4588
VAction
p4589
aVAdventure
p4590
aVDrama
p4591
aVThriller
p4592
asVIf I Stay
p4593
(lp4594
VDrama
p4595
aVFantasy
p4596
aVMusic
p4597
aVRomance
p4598
asVThe Notebook
p4599
(lp4600
VDrama
p4601
aVRomance
p4602
asVThe Chronicles of Narnia: The Lion, the Witch and the Wardrobe
p4603
(lp4604
VAdventure
p4605
aVFamily
p4606
aVFantasy
p4607
asVSan Andreas
p4608
(lp4609
VAction
p4610
aVAdventure
p4611
aVDrama
p4612
aVThriller
p4613
asVSilver Linings Playbook
p4614
(lp4615
VComedy
p4616
aVDrama
p4617
aVRomance
p4618
asVSea Monsters: A Prehistoric Adventure (IMAX)
p4619
(lp4620
VDocumentary
p4621
aVAnimation
p4622
aVShort
p4623
aVAdventure
p4624
asVReturn to Never Land
p4625
(lp4626
VAnimation
p4627
aVAdventure
p4628
aVFamily
p4629
aVFantasy
p4630
asVWatchmen
p4631
(lp4632
VAction
p4633
aVDrama
p4634
aVMystery
p4635
aVSci-Fi
p4636
asVThe Secret Life of Bees
p4637
(lp4638
VDrama
p4639
asVThe Crocodile Hunter: Collision Course
p4640
(lp4641
VAction
p4642
aVAdventure
p4643
aVComedy
p4644
aVFamily
p4645
asVThe Rookie
p4646
(lp4647
VDrama
p4648
aVFamily
p4649
aVSport
p4650
asVGoosebumps
p4651
(lp4652
VAdventure
p4653
aVComedy
p4654
aVFamily
p4655
aVFantasy
p4656
aVHorror
p4657
asVContagion
p4658
(lp4659
VDrama
p4660
aVThriller
p4661
asVTyler Perry's Why Did I Get Married?
p4662
(lp4663
VComedy
p4664
aVDrama
p4665
asVI Spy
p4666
(lp4667
VAction
p4668
aVAdventure
p4669
aVComedy
p4670
aVThriller
p4671
asVSpace Chimps
p4672
(lp4673
VAnimation
p4674
aVAdventure
p4675
aVComedy
p4676
aVFamily
p4677
aVSci-Fi
p4678
asVSomething's Gotta Give
p4679
(lp4680
VComedy
p4681
aVDrama
p4682
aVRomance
p4683
asVParanormal Activity
p4684
(lp4685
VHorror
p4686
aVMystery
p4687
aVThriller
p4688
asVHow to be a Latin Lover
p4689
(lp4690
VComedy
p4691
asVThe Matrix Reloaded
p4692
(lp4693
VAction
p4694
aVSci-Fi
p4695
asVDodgeBall: A True Underdog Story
p4696
(lp4697
VComedy
p4698
aVSport
p4699
asVHubble 3D
p4700
(lp4701
VDocumentary
p4702
asVGreen Lantern
p4703
(lp4704
VAction
p4705
aVAdventure
p4706
aVSci-Fi
p4707
asVMr. Deeds
p4708
(lp4709
VComedy
p4710
aVRomance
p4711
asVThe Family (2013)
p4712
(lp4713
VComedy
p4714
aVCrime
p4715
aVThriller
p4716
asVThe Odd Life of Timothy Green
p4717
(lp4718
VComedy
p4719
aVDrama
p4720
aVFamily
p4721
aVFantasy
p4722
asVDevil
p4723
(lp4724
VHorror
p4725
aVMystery
p4726
aVThriller
p4727
asVThe Cat in the Hat
p4728
(lp4729
VAdventure
p4730
aVComedy
p4731
aVFamily
p4732
aVFantasy
p4733
asVDespicable Me
p4734
(lp4735
VAnimation
p4736
aVAdventure
p4737
aVComedy
p4738
aVFamily
p4739
asVMission: Impossible - Rogue Nation
p4740
(lp4741
VAction
p4742
aVAdventure
p4743
aVThriller
p4744
asVExtremely Loud & Incredibly Close
p4745
(lp4746
VAdventure
p4747
aVDrama
p4748
aVMystery
p4749
asVCrash
p4750
(lp4751
VCrime
p4752
aVDrama
p4753
aVThriller
p4754
asVA Cinderella Story
p4755
(lp4756
VComedy
p4757
aVFamily
p4758
aVRomance
p4759
asVDespicable Me 2
p4760
(lp4761
VAnimation
p4762
aVAdventure
p4763
aVComedy
p4764
aVFamily
p4765
aVSci-Fi
p4766
asVThe House Bunny
p4767
(lp4768
VComedy
p4769
aVRomance
p4770
asVMinions
p4771
(lp4772
VAnimation
p4773
aVAction
p4774
aVAdventure
p4775
aVComedy
p4776
aVFamily
p4777
asVThe Lost City of Z
p4778
(lp4779
VAction
p4780
aVAdventure
p4781
aVBiography
p4782
aVDrama
p4783
aVHistory
p4784
asVNo Escape
p4785
(lp4786
VAction
p4787
aVThriller
p4788
asVArgo
p4789
(lp4790
VBiography
p4791
aVDrama
p4792
aVHistory
p4793
aVThriller
p4794
asVTower Heist
p4795
(lp4796
VAction
p4797
aVComedy
p4798
aVCrime
p4799
asVCalendar Girls
p4800
(lp4801
VComedy
p4802
aVDrama
p4803
asVSpotlight
p4804
(lp4805
VCrime
p4806
aVDrama
p4807
aVHistory
p4808
asVFreaky Friday
p4809
(lp4810
VComedy
p4811
aVFamily
p4812
aVFantasy
p4813
aVMusic
p4814
aVRomance
p4815
asVWar Room
p4816
(lp4817
VDrama
p4818
asVCast Away
p4819
(lp4820
VAdventure
p4821
aVDrama
p4822
aVRomance
p4823
asVTyler Perry's Meet the Browns
p4824
(lp4825
VComedy
p4826
asVThe 5th Wave
p4827
(lp4828
VAction
p4829
aVAdventure
p4830
aVSci-Fi
p4831
aVThriller
p4832
asVThe Rundown
p4833
(lp4834
VAction
p4835
aVAdventure
p4836
aVComedy
p4837
aVThriller
p4838
asVBad Company
p4839
(lp4840
VAction
p4841
aVAdventure
p4842
aVComedy
p4843
aVThriller
p4844
asVMy Dog Skip
p4845
(lp4846
VComedy
p4847
aVDrama
p4848
aVFamily
p4849
aVSport
p4850
asVMy Sister's Keeper
p4851
(lp4852
VDrama
p4853
asVMoulin Rouge!
p4854
(lp4855
VDrama
p4856
aVMusical
p4857
aVRomance
p4858
asVThe Brothers Grimm
p4859
(lp4860
VAdventure
p4861
aVComedy
p4862
aVFantasy
p4863
aVThriller
p4864
asVBruce Almighty
p4865
(lp4866
VComedy
p4867
aVDrama
p4868
aVFantasy
p4869
asVKung Fu Panda 2
p4870
(lp4871
VAnimation
p4872
aVAction
p4873
aVAdventure
p4874
aVComedy
p4875
aVFamily
p4876
asVSilent Hill
p4877
(lp4878
VAdventure
p4879
aVHorror
p4880
aVMystery
p4881
asVAcross the Universe
p4882
(lp4883
VDrama
p4884
aVFantasy
p4885
aVMusical
p4886
aVRomance
p4887
asVRoad to Perdition
p4888
(lp4889
VCrime
p4890
aVDrama
p4891
aVThriller
p4892
asVKing Kong
p4893
(lp4894
VAction
p4895
aVAdventure
p4896
aVDrama
p4897
aVRomance
p4898
asVStar Wars: Episode III - Revenge of the Sith
p4899
(lp4900
VAction
p4901
aVAdventure
p4902
aVFantasy
p4903
aVSci-Fi
p4904
asVFootloose (2011)
p4905
(lp4906
VComedy
p4907
aVDrama
p4908
aVMusic
p4909
aVRomance
p4910
asVOne Piece Film: Gold
p4911
(lp4912
VAnimation
p4913
aVAction
p4914
aVAdventure
p4915
aVFantasy
p4916
asVLondon Has Fallen
p4917
(lp4918
VAction
p4919
aVCrime
p4920
aVDrama
p4921
aVThriller
p4922
asVThe Expendables 3
p4923
(lp4924
VAction
p4925
aVAdventure
p4926
aVThriller
p4927
asVInvincible
p4928
(lp4929
VBiography
p4930
aVDrama
p4931
aVSport
p4932
aVWar
p4933
asVMr. Brooks
p4934
(lp4935
VCrime
p4936
aVDrama
p4937
aVThriller
p4938
asVHeaven is for Real
p4939
(lp4940
VBiography
p4941
aVDrama
p4942
aVFamily
p4943
asVThe Recruit
p4944
(lp4945
VAction
p4946
aVDrama
p4947
aVMystery
p4948
aVRomance
p4949
aVThriller
p4950
asVElysium
p4951
(lp4952
VAction
p4953
aVDrama
p4954
aVSci-Fi
p4955
aVThriller
p4956
asVPay It Forward
p4957
(lp4958
VDrama
p4959
asVBad News Bears
p4960
(lp4961
VComedy
p4962
aVSport
p4963
asVNanny McPhee
p4964
(lp4965
VComedy
p4966
aVFamily
p4967
aVFantasy
p4968
asVJohn Wick: Chapter Two
p4969
(lp4970
VAction
p4971
aVCrime
p4972
aVThriller
p4973
asVBeowulf
p4974
(lp4975
VAnimation
p4976
aVAction
p4977
aVAdventure
p4978
aVFantasy
p4979
asVTwo Can Play That Game
p4980
(lp4981
VComedy
p4982
aVRomance
p4983
asVLogan
p4984
(lp4985
VAction
p4986
aVDrama
p4987
aVSci-Fi
p4988
aVThriller
p4989
asVSigns
p4990
(lp4991
VDrama
p4992
aVMystery
p4993
aVSci-Fi
p4994
aVThriller
p4995
asVMaleficent
p4996
(lp4997
VAction
p4998
aVAdventure
p4999
aVFamily
p5000
aVFantasy
p5001
aVRomance
p5002
asVThat's My Boy
p5003
(lp5004
VComedy
p5005
aVDrama
p5006
asVGhost Rider: Spirit of Vengeance
p5007
(lp5008
VAction
p5009
aVFantasy
p5010
aVThriller
p5011
asVCharlie's Angels: Full Throttle
p5012
(lp5013
VAction
p5014
aVAdventure
p5015
aVComedy
p5016
aVCrime
p5017
asVHitman: Agent 47
p5018
(lp5019
VAction
p5020
aVCrime
p5021
aVThriller
p5022
asVImmortals
p5023
(lp5024
VAction
p5025
aVDrama
p5026
aVFantasy
p5027
aVRomance
p5028
asVThe Scorpion King
p5029
(lp5030
VAction
p5031
aVAdventure
p5032
aVFantasy
p5033
aVThriller
p5034
asVStar Trek Into Darkness
p5035
(lp5036
VAction
p5037
aVAdventure
p5038
aVSci-Fi
p5039
asVCollateral
p5040
(lp5041
VCrime
p5042
aVDrama
p5043
aVThriller
p5044
asVBig Hero 6
p5045
(lp5046
VAnimation
p5047
aVAction
p5048
aVAdventure
p5049
aVComedy
p5050
aVDrama
p5051
aVFamily
p5052
aVSci-Fi
p5053
asV21
p5054
(lp5055
VCrime
p5056
aVDrama
p5057
aVThriller
p5058
asVUnforgettable (2017)
p5059
(lp5060
VDrama
p5061
aVThriller
p5062
asVNot Another Teen Movie
p5063
(lp5064
VComedy
p5065
asVSpy Kids 3D: Game Over
p5066
(lp5067
VComedy
p5068
asVThe Master of Disguise
p5069
(lp5070
VAdventure
p5071
aVComedy
p5072
aVFamily
p5073
aVFantasy
p5074
asVBest in Show
p5075
(lp5076
VComedy
p5077
asVChappie
p5078
(lp5079
VAction
p5080
aVCrime
p5081
aVDrama
p5082
aVSci-Fi
p5083
aVThriller
p5084
asVFifty Shades of Grey
p5085
(lp5086
VDrama
p5087
aVRomance
p5088
aVThriller
p5089
asVTyler Perry's Madea Goes to Jail
p5090
(lp5091
VComedy
p5092
aVCrime
p5093
aVDrama
p5094
asVEvolution
p5095
(lp5096
VHorror
p5097
aVMystery
p5098
aVSci-Fi
p5099
asVFool's Gold
p5100
(lp5101
VAction
p5102
aVAdventure
p5103
aVComedy
p5104
aVRomance
p5105
aVThriller
p5106
asVStar Wars: The Force Awakens
p5107
(lp5108
VAction
p5109
aVAdventure
p5110
aVFantasy
p5111
aVSci-Fi
p5112
asVThe Wolf of Wall Street
p5113
(lp5114
VBiography
p5115
aVComedy
p5116
aVCrime
p5117
aVDrama
p5118
asVStar Trek: Nemesis
p5119
(lp5120
VAction
p5121
aVAdventure
p5122
aVSci-Fi
p5123
aVThriller
p5124
asVBig Fat Liar
p5125
(lp5126
VAdventure
p5127
aVComedy
p5128
aVFamily
p5129
asVThe 6th Day
p5130
(lp5131
VAction
p5132
aVMystery
p5133
aVSci-Fi
p5134
aVThriller
p5135
asVChicken Little
p5136
(lp5137
VAnimation
p5138
aVAdventure
p5139
aVComedy
p5140
aVFamily
p5141
aVSci-Fi
p5142
asVEat Pray Love
p5143
(lp5144
VDrama
p5145
aVRomance
p5146
asVNights in Rodanthe
p5147
(lp5148
VDrama
p5149
aVRomance
p5150
asVBeauty and the Beast (2017)
p5151
(lp5152
VFamily
p5153
aVFantasy
p5154
aVMusical
p5155
aVRomance
p5156
asVBring It On
p5157
(lp5158
VComedy
p5159
aVRomance
p5160
aVSport
p5161
asVNeighbors 2: Sorority Rising
p5162
(lp5163
VComedy
p5164
asVRay
p5165
(lp5166
VBiography
p5167
aVDrama
p5168
aVMusic
p5169
asVHorrible Bosses 2
p5170
(lp5171
VComedy
p5172
aVCrime
p5173
asVAlong Came a Spider
p5174
(lp5175
VCrime
p5176
aVDrama
p5177
aVThriller
p5178
asVDr. Seuss' The Lorax
p5179
(lp5180
VAnimation
p5181
aVAdventure
p5182
aVComedy
p5183
aVFamily
p5184
aVFantasy
p5185
aVMusical
p5186
asVChanging Lanes
p5187
(lp5188
VDrama
p5189
aVThriller
p5190
asVMean Girls
p5191
(lp5192
VComedy
p5193
asVTears of the Sun
p5194
(lp5195
VAction
p5196
aVDrama
p5197
aVThriller
p5198
aVWar
p5199
asVAnalyze That
p5200
(lp5201
VComedy
p5202
aVCrime
p5203
asVThe Uninvited
p5204
(lp5205
VDrama
p5206
aVHorror
p5207
aVMystery
p5208
aVThriller
p5209
asVRush Hour 3
p5210
(lp5211
VAction
p5212
aVComedy
p5213
aVCrime
p5214
aVThriller
p5215
asVHanging Up
p5216
(lp5217
VComedy
p5218
aVDrama
p5219
asVDoom
p5220
(lp5221
VAction
p5222
aVAdventure
p5223
aVHorror
p5224
aVSci-Fi
p5225
asVThe Grey
p5226
(lp5227
VAction
p5228
aVAdventure
p5229
aVDrama
p5230
aVThriller
p5231
asVMillion Dollar Arm
p5232
(lp5233
VBiography
p5234
aVDrama
p5235
aVSport
p5236
asVThe Great Gatsby (2013)
p5237
(lp5238
VDrama
p5239
aVRomance
p5240
asVTransformers: Revenge of the Fallen
p5241
(lp5242
VAction
p5243
aVAdventure
p5244
aVSci-Fi
p5245
asVKrampus
p5246
(lp5247
VComedy
p5248
aVFantasy
p5249
aVHorror
p5250
asVQueen of the Damned
p5251
(lp5252
VDrama
p5253
aVFantasy
p5254
aVHorror
p5255
asVMission: Impossible III
p5256
(lp5257
VAction
p5258
aVAdventure
p5259
aVThriller
p5260
asVJurassic World
p5261
(lp5262
VAction
p5263
aVAdventure
p5264
aVSci-Fi
p5265
asVBlack or White
p5266
(lp5267
VComedy
p5268
asV15 Minutes
p5269
(lp5270
VAction
p5271
aVCrime
p5272
aVDrama
p5273
aVThriller
p5274
asVHannibal Rising
p5275
(lp5276
VCrime
p5277
aVDrama
p5278
aVThriller
p5279
asVA Nightmare on Elm Street (2010)
p5280
(lp5281
VHorror
p5282
aVMystery
p5283
aVThriller
p5284
asVFrankenweenie
p5285
(lp5286
VAnimation
p5287
aVComedy
p5288
aVFamily
p5289
aVHorror
p5290
aVSci-Fi
p5291
asVWalking Tall
p5292
(lp5293
VAction
p5294
aVCrime
p5295
asVIce Age: Dawn of the Dinosaurs
p5296
(lp5297
VAnimation
p5298
aVAction
p5299
aVAdventure
p5300
aVComedy
p5301
aVFamily
p5302
asVHidalgo
p5303
(lp5304
VAction
p5305
aVAdventure
p5306
aVBiography
p5307
aVSport
p5308
aVWestern
p5309
asVPassengers (2016)
p5310
(lp5311
VAdventure
p5312
aVDrama
p5313
aVRomance
p5314
aVSci-Fi
p5315
asVBlade: Trinity
p5316
(lp5317
VAction
p5318
aVAdventure
p5319
aVHorror
p5320
aVSci-Fi
p5321
aVThriller
p5322
asVHugo
p5323
(lp5324
VAdventure
p5325
aVDrama
p5326
aVFamily
p5327
aVFantasy
p5328
aVMystery
p5329
aVRomance
p5330
asVJackass: Number Two
p5331
(lp5332
VDocumentary
p5333
aVAction
p5334
aVComedy
p5335
asVTable 19
p5336
(lp5337
VComedy
p5338
aVDrama
p5339
asVThe Illusionist
p5340
(lp5341
VDrama
p5342
aVMystery
p5343
aVRomance
p5344
aVThriller
p5345
asVSelma
p5346
(lp5347
VBiography
p5348
aVDrama
p5349
aVHistory
p5350
asVUnder the Sea 3D
p5351
(lp5352
VDocumentary
p5353
aVShort
p5354
asVThe Skeleton Key
p5355
(lp5356
VHorror
p5357
aVMystery
p5358
aVThriller
p5359
asVThe Hobbit: An Unexpected Journey
p5360
(lp5361
VAdventure
p5362
aVFantasy
p5363
asV30 Days of Night
p5364
(lp5365
VHorror
p5366
aVThriller
p5367
asVArthur Christmas
p5368
(lp5369
VAnimation
p5370
aVAdventure
p5371
aVComedy
p5372
aVFamily
p5373
aVFantasy
p5374
asVJust Married
p5375
(lp5376
VComedy
p5377
aVRomance
p5378
asVConcussion (2015)
p5379
(lp5380
VBiography
p5381
aVDrama
p5382
aVSport
p5383
asVSerenity
p5384
(lp5385
VAction
p5386
aVAdventure
p5387
aVSci-Fi
p5388
aVThriller
p5389
asVAmerican Reunion
p5390
(lp5391
VComedy
p5392
asVTaxi
p5393
(lp5394
VComedy
p5395
asVParental Guidance
p5396
(lp5397
VComedy
p5398
aVFamily
p5399
asVFantastic Four (2005)
p5400
(lp5401
VAction
p5402
aVAdventure
p5403
aVFamily
p5404
aVSci-Fi
p5405
asVMaster and Commander: The Far Side of the World
p5406
(lp5407
VAction
p5408
aVAdventure
p5409
aVDrama
p5410
aVHistory
p5411
aVWar
p5412
asVTyler Perry's Good Deeds
p5413
(lp5414
VComedy
p5415
aVDrama
p5416
aVRomance
p5417
asVMiss Peregrine's Home for Peculiar Children
p5418
(lp5419
VAdventure
p5420
aVDrama
p5421
aVFamily
p5422
aVFantasy
p5423
asVThe Others
p5424
(lp5425
VHorror
p5426
aVMystery
p5427
aVThriller
p5428
asVHarry Potter and the Chamber of Secrets
p5429
(lp5430
VAdventure
p5431
aVFamily
p5432
aVFantasy
p5433
aVMystery
p5434
asVClick
p5435
(lp5436
VComedy
p5437
aVDrama
p5438
aVFantasy
p5439
aVRomance
p5440
asVGladiator
p5441
(lp5442
VAction
p5443
aVAdventure
p5444
aVDrama
p5445
asVOk Jaanu
p5446
(lp5447
VDrama
p5448
aVRomance
p5449
asVThe Peanuts Movie
p5450
(lp5451
VAnimation
p5452
aVAdventure
p5453
aVComedy
p5454
aVFamily
p5455
asVLittle Man
p5456
(lp5457
VComedy
p5458
aVCrime
p5459
asVEnd of Watch
p5460
(lp5461
VCrime
p5462
aVDrama
p5463
aVThriller
p5464
asVThe Bourne Ultimatum
p5465
(lp5466
VAction
p5467
aVMystery
p5468
aVThriller
p5469
asVArrival
p5470
(lp5471
VDrama
p5472
aVMystery
p5473
aVSci-Fi
p5474
aVThriller
p5475
asVMust Love Dogs
p5476
(lp5477
VComedy
p5478
aVRomance
p5479
asVStranger Than Fiction
p5480
(lp5481
VComedy
p5482
aVDrama
p5483
aVFantasy
p5484
aVRomance
p5485
asVK-19: The Widowmaker
p5486
(lp5487
VDrama
p5488
aVHistory
p5489
aVThriller
p5490
aVWar
p5491
asVCloudy with a Chance of Meatballs 2
p5492
(lp5493
VAnimation
p5494
aVAdventure
p5495
aVComedy
p5496
aVFamily
p5497
aVFantasy
p5498
aVSci-Fi
p5499
asVThe Promise (2017)
p5500
(lp5501
VComedy
p5502
asVMalibu's Most Wanted
p5503
(lp5504
VComedy
p5505
aVCrime
p5506
asVUnfaithful
p5507
(lp5508
VDrama
p5509
aVThriller
p5510
asVThe Age of Adaline
p5511
(lp5512
VDrama
p5513
aVFantasy
p5514
aVRomance
p5515
asVHarry Potter and the Order of the Phoenix
p5516
(lp5517
VAdventure
p5518
aVFamily
p5519
aVFantasy
p5520
aVMystery
p5521
asVRent
p5522
(lp5523
VDrama
p5524
aVMusical
p5525
aVRomance
p5526
asVOne Hour Photo
p5527
(lp5528
VDrama
p5529
aVThriller
p5530
asVValkyrie
p5531
(lp5532
VDrama
p5533
aVHistory
p5534
aVThriller
p5535
aVWar
p5536
asVHoles
p5537
(lp5538
VAdventure
p5539
aVComedy
p5540
aVDrama
p5541
aVFamily
p5542
aVMystery
p5543
asVEverybody Loves Somebody
p5544
(lp5545
VComedy
p5546
aVRomance
p5547
asVThe Pink Panther (2006)
p5548
(lp5549
VAdventure
p5550
aVComedy
p5551
aVCrime
p5552
aVFamily
p5553
aVMystery
p5554
asVHoodwinked
p5555
(lp5556
VAnimation
p5557
aVAction
p5558
aVComedy
p5559
aVCrime
p5560
aVFamily
p5561
aVMystery
p5562
asVFlags of Our Fathers
p5563
(lp5564
VDrama
p5565
aVHistory
p5566
aVWar
p5567
asVSemi-Pro
p5568
(lp5569
VComedy
p5570
aVSport
p5571
asVEx Machina
p5572
(lp5573
VDrama
p5574
aVMystery
p5575
aVSci-Fi
p5576
aVThriller
p5577
asVUnderworld: Rise of the Lycans
p5578
(lp5579
VAction
p5580
aVAdventure
p5581
aVFantasy
p5582
aVSci-Fi
p5583
aVThriller
p5584
asVThe Zookeeper's Wife
p5585
(lp5586
VBiography
p5587
aVDrama
p5588
aVHistory
p5589
aVWar
p5590
asVMy Bloody Valentine 3-D
p5591
(lp5592
VHorror
p5593
aVThriller
p5594
asVThe Hunted
p5595
(lp5596
VDrama
p5597
asVThe Lazarus Effect
p5598
(lp5599
VHorror
p5600
aVMystery
p5601
aVSci-Fi
p5602
aVThriller
p5603
asVFantastic Four: Rise of the Silver Surfer
p5604
(lp5605
VAction
p5606
aVAdventure
p5607
aVFantasy
p5608
aVSci-Fi
p5609
aVThriller
p5610
asVGone Girl
p5611
(lp5612
VCrime
p5613
aVDrama
p5614
aVMystery
p5615
aVThriller
p5616
asVJoe Dirt
p5617
(lp5618
VAdventure
p5619
aVComedy
p5620
aVDrama
p5621
asVFast and Furious
p5622
(lp5623
VAction
p5624
aVCrime
p5625
aVThriller
p5626
asVThe Theory of Everything
p5627
(lp5628
VBiography
p5629
aVDrama
p5630
aVRomance
p5631
asVFracture
p5632
(lp5633
VCrime
p5634
aVDrama
p5635
aVMystery
p5636
aVThriller
p5637
asVTooth Fairy
p5638
(lp5639
VComedy
p5640
aVFamily
p5641
aVFantasy
p5642
asVZootopia
p5643
(lp5644
VAnimation
p5645
aVAdventure
p5646
aVComedy
p5647
aVCrime
p5648
aVFamily
p5649
aVMystery
p5650
asVAround the World in 80 Days
p5651
(lp5652
VAdventure
p5653
aVComedy
p5654
aVFamily
p5655
aVRomance
p5656
asVThe Lovely Bones
p5657
(lp5658
VDrama
p5659
aVFantasy
p5660
aVThriller
p5661
asVThe Three Stooges
p5662
(lp5663
VComedy
p5664
aVFamily
p5665
asVTraffic
p5666
(lp5667
VCrime
p5668
aVDrama
p5669
aVThriller
p5670
asVThe Mummy Returns
p5671
(lp5672
VAction
p5673
aVAdventure
p5674
aVFantasy
p5675
aVThriller
p5676
asVPaycheck
p5677
(lp5678
VAction
p5679
aVMystery
p5680
aVSci-Fi
p5681
aVThriller
p5682
asVU-571
p5683
(lp5684
VAction
p5685
aVWar
p5686
asVWorld Trade Center
p5687
(lp5688
VDrama
p5689
aVHistory
p5690
aVThriller
p5691
asVMade of Honor
p5692
(lp5693
VComedy
p5694
aVRomance
p5695
asVThis is Where I Leave You
p5696
(lp5697
VComedy
p5698
aVDrama
p5699
asVThe Hobbit: The Desolation of Smaug
p5700
(lp5701
VAdventure
p5702
aVFantasy
p5703
asVSomething Borrowed
p5704
(lp5705
VComedy
p5706
aVRomance
p5707
asVSleight
p5708
(lp5709
VAction
p5710
aVDrama
p5711
aVSci-Fi
p5712
aVThriller
p5713
asVAre We Done Yet?
p5714
(lp5715
VComedy
p5716
aVFamily
p5717
aVFantasy
p5718
asVThe Cabin in the Woods
p5719
(lp5720
VHorror
p5721
asVFriends with Benefits
p5722
(lp5723
VComedy
p5724
aVRomance
p5725
asVNight at the Museum: Battle of the Smithsonian
p5726
(lp5727
VAdventure
p5728
aVComedy
p5729
aVFamily
p5730
aVFantasy
p5731
asVSee Spot Run
p5732
(lp5733
VAction
p5734
aVComedy
p5735
aVCrime
p5736
aVFamily
p5737
asVBoo! A Madea Halloween
p5738
(lp5739
VComedy
p5740
aVHorror
p5741
asVOpen Water
p5742
(lp5743
VHorror
p5744
aVThriller
p5745
asVWrath of the Titans
p5746
(lp5747
VAction
p5748
aVAdventure
p5749
aVFantasy
p5750
asVJersey Boys
p5751
(lp5752
VBiography
p5753
aVDrama
p5754
aVMusic
p5755
aVMusical
p5756
asVFred Claus
p5757
(lp5758
VComedy
p5759
aVFamily
p5760
aVFantasy
p5761
asVMama
p5762
(lp5763
VHorror
p5764
aVThriller
p5765
asVCats & Dogs
p5766
(lp5767
VAction
p5768
aVComedy
p5769
aVFamily
p5770
aVFantasy
p5771
asVThe Haunted Mansion
p5772
(lp5773
VComedy
p5774
aVFamily
p5775
aVFantasy
p5776
aVHorror
p5777
aVMystery
p5778
asVBlood Work
p5779
(lp5780
VAction
p5781
aVCrime
p5782
aVDrama
p5783
aVMystery
p5784
aVThriller
p5785
asVGarden State
p5786
(lp5787
VComedy
p5788
aVDrama
p5789
aVRomance
p5790
asVMy Life as a Zucchini
p5791
(lp5792
VAnimation
p5793
aVComedy
p5794
aVDrama
p5795
asVHalloween: Resurrection
p5796
(lp5797
VComedy
p5798
aVHorror
p5799
aVThriller
p5800
asVJohn Tucker Must Die
p5801
(lp5802
VComedy
p5803
aVRomance
p5804
asVNim's Island
p5805
(lp5806
VAdventure
p5807
aVComedy
p5808
aVFamily
p5809
aVFantasy
p5810
asVLegally Blonde
p5811
(lp5812
VComedy
p5813
aVRomance
p5814
asVSpy Game
p5815
(lp5816
VAction
p5817
aVCrime
p5818
aVThriller
p5819
asVNational Treasure
p5820
(lp5821
VAction
p5822
aVAdventure
p5823
aVFamily
p5824
aVMystery
p5825
aVThriller
p5826
asVThe Iron Lady
p5827
(lp5828
VBiography
p5829
aVDrama
p5830
asVCrazy Heart
p5831
(lp5832
VDrama
p5833
aVMusic
p5834
aVRomance
p5835
asVDance Flick
p5836
(lp5837
VAction
p5838
aVComedy
p5839
aVMusic
p5840
asVThe Constant Gardener
p5841
(lp5842
VDrama
p5843
aVMystery
p5844
aVRomance
p5845
aVThriller
p5846
asVThe LEGO Batman Movie
p5847
(lp5848
VAnimation
p5849
aVAction
p5850
aVAdventure
p5851
aVComedy
p5852
aVFamily
p5853
aVFantasy
p5854
asVFlightplan
p5855
(lp5856
VDrama
p5857
aVMystery
p5858
aVThriller
p5859
asVInsidious
p5860
(lp5861
VHorror
p5862
aVMystery
p5863
aVThriller
p5864
asVHairspray (2007)
p5865
(lp5866
VComedy
p5867
aVDrama
p5868
aVFamily
p5869
aVMusic
p5870
aVMusical
p5871
aVRomance
p5872
asVWater for Elephants
p5873
(lp5874
VDrama
p5875
aVRomance
p5876
asVThe Shallows
p5877
(lp5878
VDrama
p5879
aVHorror
p5880
aVThriller
p5881
asVLet's Be Cops
p5882
(lp5883
VComedy
p5884
asVThe Pacifier
p5885
(lp5886
VAction
p5887
aVComedy
p5888
aVDrama
p5889
aVFamily
p5890
aVThriller
p5891
asVInside Man
p5892
(lp5893
VCrime
p5894
aVDrama
p5895
aVMystery
p5896
aVThriller
p5897
asVThe Flintstones in Viva Rock Vegas
p5898
g54
sVThe Soloist
p5899
(lp5900
VBiography
p5901
aVDrama
p5902
aVMusic
p5903
asVFrida
p5904
(lp5905
VBiography
p5906
aVDrama
p5907
aVRomance
p5908
asVThe Guardian
p5909
(lp5910
VAction
p5911
aVAdventure
p5912
aVDrama
p5913
asVLady in the Water
p5914
(lp5915
VDrama
p5916
aVFantasy
p5917
aVMystery
p5918
aVThriller
p5919
asVBrothers
p5920
(lp5921
VDrama
p5922
aVThriller
p5923
aVWar
p5924
asVGhosts of Girlfriends Past
p5925
(lp5926
VComedy
p5927
aVFantasy
p5928
aVRomance
p5929
asVCars
p5930
(lp5931
VAnimation
p5932
aVAdventure
p5933
aVComedy
p5934
aVFamily
p5935
aVSport
p5936
asVBig Fish
p5937
(lp5938
VAdventure
p5939
aVDrama
p5940
aVFantasy
p5941
asVMorning Glory
p5942
(lp5943
VComedy
p5944
aVDrama
p5945
aVRomance
p5946
asVSpider-Man 3
p5947
(lp5948
VAction
p5949
aVAdventure
p5950
asVBless the Child
p5951
(lp5952
VCrime
p5953
aVDrama
p5954
aVHorror
p5955
aVThriller
p5956
asVThe Lake House
p5957
(lp5958
VDrama
p5959
aVFantasy
p5960
aVRomance
p5961
asVThe Best Man Holiday
p5962
(lp5963
VComedy
p5964
aVDrama
p5965
asVRoad Trip
p5966
(lp5967
VAdventure
p5968
aVComedy
p5969
asVThe Fighting Temptations
p5970
(lp5971
VComedy
p5972
aVDrama
p5973
aVMusic
p5974
aVRomance
p5975
asVThe Legend of Bagger Vance
p5976
(lp5977
VDrama
p5978
aVFantasy
p5979
aVSport
p5980
asVAllied
p5981
(lp5982
VAction
p5983
aVDrama
p5984
aVRomance
p5985
aVThriller
p5986
aVWar
p5987
asVClash of the Titans (2010)
p5988
(lp5989
VAction
p5990
aVAdventure
p5991
aVFantasy
p5992
asVBewitched
p5993
(lp5994
VComedy
p5995
aVFamily
p5996
aVFantasy
p5997
aVRomance
p5998
asVJust Go With It
p5999
(lp6000
VComedy
p6001
aVRomance
p6002
asVThe Second Best Exotic Marigold Hotel
p6003
(lp6004
VComedy
p6005
aVDrama
p6006
asVPirates of the Caribbean: The Curse of the Black Pearl
p6007
(lp6008
VAction
p6009
aVAdventure
p6010
aVFantasy
p6011
asVSpanglish
p6012
(lp6013
VComedy
p6014
aVDrama
p6015
aVRomance
p6016
asVX-Men: The Last Stand
p6017
(lp6018
VAction
p6019
aVAdventure
p6020
aVFantasy
p6021
aVSci-Fi
p6022
aVThriller
p6023
asVSpectre
p6024
(lp6025
VAction
p6026
aVAdventure
p6027
aVThriller
p6028
asVX-Men: Apocalypse
p6029
(lp6030
VAction
p6031
aVAdventure
p6032
aVSci-Fi
p6033
asVWar of the Worlds
p6034
(lp6035
VAdventure
p6036
aVSci-Fi
p6037
aVThriller
p6038
asVAll About the Benjamins
p6039
(lp6040
VAction
p6041
aVComedy
p6042
aVCrime
p6043
aVThriller
p6044
asVThe Revenant
p6045
(lp6046
VAdventure
p6047
aVDrama
p6048
aVThriller
p6049
aVWestern
p6050
asVOnce Upon a Time in Mexico
p6051
(lp6052
VAction
p6053
aVThriller
p6054
asVThe Sense of an Ending
p6055
(lp6056
VDrama
p6057
asVIce Age: The Meltdown
p6058
(lp6059
VAnimation
p6060
aVAction
p6061
aVAdventure
p6062
aVComedy
p6063
aVFamily
p6064
aVFantasy
p6065
asVHope Springs
p6066
(lp6067
VComedy
p6068
aVDrama
p6069
aVRomance
p6070
asVPremonition
p6071
(lp6072
VDrama
p6073
aVMystery
p6074
aVThriller
p6075
asVKung Fu Panda
p6076
(lp6077
VAnimation
p6078
aVAction
p6079
aVAdventure
p6080
aVComedy
p6081
aVFamily
p6082
asVPanic Room
p6083
(lp6084
VCrime
p6085
aVDrama
p6086
aVThriller
p6087
asVPitch Black
p6088
(lp6089
VHorror
p6090
aVSci-Fi
p6091
asVThe Bourne Legacy
p6092
(lp6093
VAction
p6094
aVAdventure
p6095
aVMystery
p6096
aVRomance
p6097
aVThriller
p6098
asVIs Genesis History?
p6099
(lp6100
VDocumentary
p6101
asVThe Intern
p6102
(lp6103
VComedy
p6104
aVDrama
p6105
asV9
p6106
(lp6107
VAnimation
p6108
aVAction
p6109
aVAdventure
p6110
aVDrama
p6111
aVMystery
p6112
aVSci-Fi
p6113
aVThriller
p6114
asVThe Help
p6115
(lp6116
VDrama
p6117
asVCourageous
p6118
(lp6119
VDrama
p6120
asVThe Longest Yard
p6121
(lp6122
VComedy
p6123
aVCrime
p6124
aVSport
p6125
asVThe Internship
p6126
(lp6127
VComedy
p6128
asVXXX: State of the Union
p6129
(lp6130
VAction
p6131
aVAdventure
p6132
aVCrime
p6133
aVDrama
p6134
aVMystery
p6135
aVThriller
p6136
asVThe Pink Panther 2
p6137
(lp6138
VAdventure
p6139
aVComedy
p6140
aVCrime
p6141
aVFamily
p6142
aVMystery
p6143
asVNotorious (2009)
p6144
(lp6145
VBiography
p6146
aVCrime
p6147
aVDrama
p6148
aVMusic
p6149
asVThe Passion of the Christ
p6150
(lp6151
VDrama
p6152
asVOld School
p6153
(lp6154
VComedy
p6155
asVStardust
p6156
(lp6157
VAdventure
p6158
aVFamily
p6159
aVFantasy
p6160
aVRomance
p6161
asVThe A-Team
p6162
g54
sVThe Purge: Anarchy
p6163
(lp6164
VAction
p6165
aVHorror
p6166
aVSci-Fi
p6167
aVThriller
p6168
asVTerminator Salvation
p6169
(lp6170
VAction
p6171
aVAdventure
p6172
aVDrama
p6173
aVSci-Fi
p6174
aVThriller
p6175
asVSaw II
p6176
(lp6177
VHorror
p6178
aVMystery
p6179
asVUnderworld Awakening
p6180
(lp6181
VAction
p6182
aVFantasy
p6183
aVHorror
p6184
asVThor: The Dark World
p6185
(lp6186
VAction
p6187
aVAdventure
p6188
aVFantasy
p6189
aVSci-Fi
p6190
asV50 First Dates
p6191
(lp6192
VComedy
p6193
aVRomance
p6194
asVThe Legend of Tarzan
p6195
(lp6196
VAction
p6197
aVAdventure
p6198
aVDrama
p6199
aVRomance
p6200
asV50/50
p6201
(lp6202
VComedy
p6203
aVDrama
p6204
aVRomance
p6205
asVBattle: Los Angeles
p6206
(lp6207
VAction
p6208
aVSci-Fi
p6209
asVPoint Break (2015)
p6210
(lp6211
VAction
p6212
aVCrime
p6213
aVSport
p6214
aVThriller
p6215
asVBridget Jones: The Edge of Reason
p6216
(lp6217
VComedy
p6218
aVDrama
p6219
aVRomance
p6220
asVTaken
p6221
(lp6222
VAction
p6223
aVThriller
p6224
asVSpace Station 3-D (IMAX)
p6225
(lp6226
VDocumentary
p6227
asVUnder the Tuscan Sun
p6228
(lp6229
VComedy
p6230
aVDrama
p6231
aVRomance
p6232
asVThe Punisher
p6233
(lp6234
VAction
p6235
aVAdventure
p6236
aVCrime
p6237
aVThriller
p6238
asVThe Santa Clause 3: The Escape Clause
p6239
(lp6240
VAdventure
p6241
aVComedy
p6242
aVFamily
p6243
aVFantasy
p6244
asVSuicide Squad
p6245
(lp6246
VAction
p6247
aVAdventure
p6248
aVFantasy
p6249
aVSci-Fi
p6250
asVFinal Destination 3
p6251
(lp6252
VHorror
p6253
aVThriller
p6254
asVMen in Black II
p6255
(lp6256
VAction
p6257
aVAdventure
p6258
aVComedy
p6259
aVFamily
p6260
aVMystery
p6261
aVSci-Fi
p6262
asVMr. Popper's Penguins
p6263
(lp6264
VComedy
p6265
aVFamily
p6266
aVFantasy
p6267
asVThe Family Man
p6268
(lp6269
VComedy
p6270
aVDrama
p6271
aVFantasy
p6272
aVRomance
p6273
asVFinal Destination 5
p6274
(lp6275
VHorror
p6276
aVThriller
p6277
asVHead of State
p6278
(lp6279
VComedy
p6280
asVDreamer: Inspired by a True Story
p6281
(lp6282
VDrama
p6283
aVFamily
p6284
aVSport
p6285
asVOuija
p6286
(lp6287
VHorror
p6288
aVThriller
p6289
asVCars 2
p6290
(lp6291
VAnimation
p6292
aVAdventure
p6293
aVComedy
p6294
aVFamily
p6295
aVSport
p6296
asVGood Luck Chuck
p6297
(lp6298
VComedy
p6299
aVRomance
p6300
asVxXx: The Return of Xander Cage
p6301
(lp6302
VAction
p6303
aVAdventure
p6304
aVThriller
p6305
asVRacing Stripes
p6306
(lp6307
VAdventure
p6308
aVComedy
p6309
aVDrama
p6310
aVFamily
p6311
aVSport
p6312
asVThor
p6313
(lp6314
VAction
p6315
aVAdventure
p6316
aVFantasy
p6317
aVSci-Fi
p6318
asVThe Dark Knight Rises
p6319
(lp6320
VAction
p6321
aVThriller
p6322
asVBrave
p6323
(lp6324
VAnimation
p6325
aVAdventure
p6326
aVComedy
p6327
aVFamily
p6328
aVFantasy
p6329
asVExodus: Gods and Kings
p6330
(lp6331
VAction
p6332
aVAdventure
p6333
aVDrama
p6334
asVNational Treasure: Book of Secrets
p6335
(lp6336
VAction
p6337
aVAdventure
p6338
aVFamily
p6339
aVMystery
p6340
aVThriller
p6341
asVBig Momma's House 2
p6342
(lp6343
VComedy
p6344
aVCrime
p6345
asVThe Hunger Games
p6346
(lp6347
VAdventure
p6348
aVSci-Fi
p6349
aVThriller
p6350
asVStealth
p6351
(lp6352
VAction
p6353
aVAdventure
p6354
aVSci-Fi
p6355
aVThriller
p6356
asVOffice Christmas Party
p6357
(lp6358
VComedy
p6359
asVSucker Punch
p6360
(lp6361
VAction
p6362
aVFantasy
p6363
asVIt's Complicated
p6364
(lp6365
VComedy
p6366
aVDrama
p6367
aVRomance
p6368
asVJumping the Broom
p6369
(lp6370
VComedy
p6371
aVDrama
p6372
asVThe Replacements
p6373
(lp6374
VComedy
p6375
aVSport
p6376
asVMr. & Mrs. Smith
p6377
(lp6378
VAction
p6379
aVComedy
p6380
aVCrime
p6381
aVRomance
p6382
aVThriller
p6383
asVAeon Flux
p6384
(lp6385
VAction
p6386
aVSci-Fi
p6387
asVContraband
p6388
(lp6389
VAction
p6390
aVCrime
p6391
aVDrama
p6392
aVThriller
p6393
asVThe Adventures of Rocky & Bullwinkle
p6394
(lp6395
VAnimation
p6396
aVAdventure
p6397
aVComedy
p6398
aVFamily
p6399
aVFantasy
p6400
asVFriday Night Lights
p6401
(lp6402
VDrama
p6403
aVSport
p6404
asVMIB 3
p6405
(lp6406
VAction
p6407
aVComedy
p6408
aVSci-Fi
p6409
asVFrantz
p6410
(lp6411
VDrama
p6412
aVHistory
p6413
aVWar
p6414
asVJourney to the Center of the Earth
p6415
(lp6416
VAction
p6417
aVAdventure
p6418
aVFamily
p6419
aVFantasy
p6420
aVSci-Fi
p6421
asVThe Santa Clause 2
p6422
(lp6423
VComedy
p6424
aVFamily
p6425
aVFantasy
p6426
asVBecause I Said So
p6427
(lp6428
VComedy
p6429
aVRomance
p6430
asVSnatch
p6431
(lp6432
VComedy
p6433
aVCrime
p6434
asVAugust Rush
p6435
(lp6436
VDrama
p6437
aVMusic
p6438
asVThe Amazing Spider-Man 2
p6439
(lp6440
VAction
p6441
aVAdventure
p6442
aVSci-Fi
p6443
asVNacho Libre
p6444
(lp6445
VComedy
p6446
aVFamily
p6447
aVSport
p6448
asVHarry Potter and the Sorcerer's Stone
p6449
(lp6450
VAdventure
p6451
aVFamily
p6452
aVFantasy
p6453
asVAmerican Sniper
p6454
(lp6455
VAction
p6456
aVBiography
p6457
aVDrama
p6458
aVHistory
p6459
aVThriller
p6460
aVWar
p6461
asVJack and Jill
p6462
(lp6463
VComedy
p6464
asVMoney Monster
p6465
(lp6466
VCrime
p6467
aVDrama
p6468
aVThriller
p6469
asV300
p6470
(lp6471
VAction
p6472
aVFantasy
p6473
asVFinding Forrester
p6474
(lp6475
VDrama
p6476
asVThe Strangers
p6477
(lp6478
VHorror
p6479
aVMystery
p6480
aVThriller
p6481
asVThe Other Woman (2014)
p6482
(lp6483
VComedy
p6484
aVRomance
p6485
asVThe Great Wall
p6486
(lp6487
VAction
p6488
aVAdventure
p6489
aVFantasy
p6490
aVThriller
p6491
asVThe Hangover
p6492
(lp6493
VComedy
p6494
asVA Cure for Wellness
p6495
(lp6496
VDrama
p6497
aVFantasy
p6498
aVHorror
p6499
aVMystery
p6500
aVSci-Fi
p6501
aVThriller
p6502
asVThe Giver
p6503
(lp6504
VDrama
p6505
aVRomance
p6506
aVSci-Fi
p6507
asVHostage
p6508
(lp6509
VAction
p6510
aVCrime
p6511
aVDrama
p6512
aVMystery
p6513
aVThriller
p6514
asVThe Time Traveler's Wife
p6515
(lp6516
VDrama
p6517
aVFantasy
p6518
aVRomance
p6519
aVSci-Fi
p6520
asVThe Founder
p6521
(lp6522
VBiography
p6523
aVDrama
p6524
aVHistory
p6525
asVBlue Crush
p6526
(lp6527
VDrama
p6528
aVRomance
p6529
aVSport
p6530
asVElizabethtown
p6531
(lp6532
VComedy
p6533
aVDrama
p6534
aVRomance
p6535
asVNewsies: The Broadway Musical
p6536
(lp6537
VMusical
p6538
asV27 Dresses
p6539
(lp6540
VComedy
p6541
aVRomance
p6542
asVState of Play
p6543
(lp6544
VCrime
p6545
aVDrama
p6546
aVMystery
p6547
aVThriller
p6548
asVJeepers Creepers
p6549
(lp6550
VHorror
p6551
aVMystery
p6552
asVElf
p6553
(lp6554
VComedy
p6555
aVFamily
p6556
aVFantasy
p6557
aVRomance
p6558
asVDeath Race
p6559
(lp6560
VAction
p6561
aVSci-Fi
p6562
aVThriller
p6563
asVUrban Legends: Final Cut
p6564
(lp6565
VHorror
p6566
aVMystery
p6567
aVRomance
p6568
aVThriller
p6569
asVKubo and the Two Strings
p6570
(lp6571
VAnimation
p6572
aVAdventure
p6573
aVFamily
p6574
aVFantasy
p6575
asVThe Woman in Black
p6576
(lp6577
VDrama
p6578
aVFantasy
p6579
aVHorror
p6580
aVThriller
p6581
asVO Brother, Where Art Thou?
p6582
(lp6583
VAdventure
p6584
aVComedy
p6585
aVCrime
p6586
aVMusic
p6587
asVWhite Noise
p6588
(lp6589
VDrama
p6590
aVHorror
p6591
aVMystery
p6592
aVThriller
p6593
asVWanted
p6594
(lp6595
VAction
p6596
aVCrime
p6597
aVFantasy
p6598
aVThriller
p6599
asVS.W.A.T.
p6600
(lp6601
VAction
p6602
aVAdventure
p6603
aVCrime
p6604
aVThriller
p6605
asVMoonlight (2016)
p6606
(lp6607
VDrama
p6608
asVThe Gambler
p6609
(lp6610
VCrime
p6611
aVDrama
p6612
aVThriller
p6613
asVShall We Dance
p6614
(lp6615
VComedy
p6616
aVDrama
p6617
aVRomance
p6618
asVOlympus Has Fallen
p6619
(lp6620
VAction
p6621
aVThriller
p6622
asVDeliver Us From Evil
p6623
(lp6624
VHorror
p6625
aVMystery
p6626
aVThriller
p6627
asVHarold and Kumar Escape from Guantanamo Bay
p6628
(lp6629
VAdventure
p6630
aVComedy
p6631
asVEagle Eye
p6632
(lp6633
VAction
p6634
aVMystery
p6635
aVThriller
p6636
asVFirewall
p6637
(lp6638
VCrime
p6639
aVThriller
p6640
asVMy Big Fat Greek Wedding
p6641
(lp6642
VComedy
p6643
aVDrama
p6644
aVRomance
p6645
asVThe Equalizer
p6646
(lp6647
VAction
p6648
aVCrime
p6649
aVThriller
p6650
asVHail, Caesar!
p6651
(lp6652
VComedy
p6653
aVMystery
p6654
asVArthur (2011)
p6655
(lp6656
VComedy
p6657
aVRomance
p6658
asVG-Force
p6659
(lp6660
VAnimation
p6661
aVAction
p6662
aVAdventure
p6663
aVComedy
p6664
aVFamily
p6665
aVFantasy
p6666
aVSci-Fi
p6667
asVAfter the Sunset
p6668
(lp6669
VAction
p6670
aVComedy
p6671
aVCrime
p6672
aVDrama
p6673
asVGran Torino
p6674
(lp6675
VDrama
p6676
asVBlack Hawk Down
p6677
(lp6678
VDrama
p6679
aVHistory
p6680
aVWar
p6681
asVUnderworld
p6682
(lp6683
VAction
p6684
aVFantasy
p6685
aVThriller
p6686
asVQuantum of Solace
p6687
(lp6688
VAction
p6689
aVAdventure
p6690
asVBabel
p6691
(lp6692
VDrama
p6693
asVTrue Grit
p6694
(lp6695
VAdventure
p6696
aVDrama
p6697
aVWestern
p6698
asVFast & Furious 6
p6699
(lp6700
VAction
p6701
aVCrime
p6702
aVThriller
p6703
asVI am Not Your Negro
p6704
(lp6705
VDocumentary
p6706
asVPuss in Boots
p6707
(lp6708
VAnimation
p6709
aVAction
p6710
aVAdventure
p6711
aVComedy
p6712
aVFamily
p6713
aVFantasy
p6714
asVJurassic Park III
p6715
(lp6716
VAction
p6717
aVAdventure
p6718
aVSci-Fi
p6719
aVThriller
p6720
asVThe Gift (2015)
p6721
(lp6722
VMystery
p6723
aVThriller
p6724
asVMiami Vice
p6725
(lp6726
VAction
p6727
aVCrime
p6728
aVDrama
p6729
aVMystery
p6730
aVThriller
p6731
asVScary Movie
p6732
(lp6733
VHorror
p6734
aVMystery
p6735
asVScott Pilgrim vs. the World
p6736
(lp6737
VAction
p6738
aVComedy
p6739
aVFantasy
p6740
aVRomance
p6741
asVMichael Jackson's This Is It
p6742
(lp6743
VDocumentary
p6744
aVMusic
p6745
asVThe Shaggy Dog
p6746
(lp6747
VComedy
p6748
aVFamily
p6749
aVFantasy
p6750
asVSisters
p6751
(lp6752
VComedy
p6753
asVPitch Perfect
p6754
(lp6755
VComedy
p6756
aVMusic
p6757
aVRomance
p6758
asVSully
p6759
(lp6760
VBiography
p6761
aVDrama
p6762
asVMinority Report
p6763
(lp6764
VAction
p6765
aVAdventure
p6766
aVCrime
p6767
aVDrama
p6768
aVMystery
p6769
aVSci-Fi
p6770
aVThriller
p6771
asVQuarantine
p6772
(lp6773
VHorror
p6774
aVSci-Fi
p6775
aVThriller
p6776
asVCentral Intelligence
p6777
(lp6778
VAction
p6779
aVComedy
p6780
aVCrime
p6781
asVKeeping the Faith
p6782
(lp6783
VComedy
p6784
aVDrama
p6785
aVRomance
p6786
asVDisturbia
p6787
(lp6788
VDrama
p6789
aVMystery
p6790
aVThriller
p6791
asVThe Italian Job
p6792
(lp6793
VAction
p6794
aVCrime
p6795
aVThriller
p6796
asVThe Wolfman
p6797
(lp6798
VDrama
p6799
aVFantasy
p6800
aVHorror
p6801
aVThriller
p6802
asVFree Fire
p6803
(lp6804
VAction
p6805
aVCrime
p6806
aVThriller
p6807
asVShowtime
p6808
(lp6809
VComedy
p6810
aVDrama
p6811
aVMusic
p6812
aVMusical
p6813
asVBoston: An American Running Story
p6814
g54
sVYu-Gi-Oh! The Dark Side of Dimensions
p6815
(lp6816
VAnimation
p6817
aVAdventure
p6818
aVDrama
p6819
aVFantasy
p6820
asVSahara
p6821
(lp6822
VAction
p6823
aVAdventure
p6824
aVComedy
p6825
aVThriller
p6826
asVSweeney Todd: The Demon Barber of Fleet Street
p6827
(lp6828
VDrama
p6829
aVHorror
p6830
aVMusical
p6831
aVThriller
p6832
asVLimitless
p6833
(lp6834
VComedy
p6835
aVCrime
p6836
aVDrama
p6837
aVSci-Fi
p6838
aVThriller
p6839
asVThe World's End
p6840
(lp6841
VAction
p6842
aVComedy
p6843
aVSci-Fi
p6844
asVThe Best Exotic Marigold Hotel
p6845
(lp6846
VComedy
p6847
aVDrama
p6848
asVDoubt
p6849
(lp6850
VDrama
p6851
asVParanormal Activity: The Marked Ones
p6852
(lp6853
VHorror
p6854
aVThriller
p6855
asVWild (2014)
p6856
(lp6857
VAdventure
p6858
aVBiography
p6859
aVDrama
p6860
asVThe Monuments Men
p6861
(lp6862
VDrama
p6863
aVWar
p6864
asVLara Croft: Tomb Raider
p6865
(lp6866
VAction
p6867
aVAdventure
p6868
aVFantasy
p6869
aVThriller
p6870
asVThis Is 40
p6871
(lp6872
VComedy
p6873
aVRomance
p6874
asVFantasia 2000 (IMAX)
p6875
(lp6876
VAnimation
p6877
aVComedy
p6878
aVFamily
p6879
aVFantasy
p6880
aVMusic
p6881
asVPoltergeist (2015)
p6882
(lp6883
VHorror
p6884
aVThriller
p6885
asVRomeo Must Die
p6886
(lp6887
VAction
p6888
aVCrime
p6889
aVThriller
p6890
asVZack and Miri Make a Porno
p6891
(lp6892
VComedy
p6893
aVRomance
p6894
asVThe Adventures of Tintin
p6895
(lp6896
VAnimation
p6897
aVAction
p6898
aVAdventure
p6899
aVFamily
p6900
aVMystery
p6901
asVPhillauri
p6902
(lp6903
VComedy
p6904
aVDrama
p6905
aVFantasy
p6906
aVRomance
p6907
asVHereafter
p6908
(lp6909
VDrama
p6910
aVFantasy
p6911
asVThe Lucky One
p6912
(lp6913
VDrama
p6914
aVRomance
p6915
asVVan Helsing
p6916
(lp6917
VAction
p6918
aVDrama
p6919
aVFantasy
p6920
aVHorror
p6921
asVThe Boy Next Door
p6922
(lp6923
VMystery
p6924
aVThriller
p6925
asVSpy
p6926
(lp6927
VAction
p6928
aVComedy
p6929
aVCrime
p6930
asV12 Years a Slave
p6931
(lp6932
VBiography
p6933
aVDrama
p6934
aVHistory
p6935
asVTron Legacy
p6936
(lp6937
VAction
p6938
aVAdventure
p6939
aVSci-Fi
p6940
asVSoul Surfer
p6941
(lp6942
VBiography
p6943
aVDrama
p6944
aVFamily
p6945
aVSport
p6946
asVZookeeper
p6947
(lp6948
VComedy
p6949
aVFamily
p6950
aVRomance
p6951
asVGet Out
p6952
(lp6953
VHorror
p6954
aVMystery
p6955
asVOcean's Eleven
p6956
(lp6957
VCrime
p6958
aVThriller
p6959
asVThe Fault in our Stars
p6960
(lp6961
VDrama
p6962
aVRomance
p6963
asVWall Street: Money Never Sleeps
p6964
(lp6965
VDrama
p6966
asVKick-Ass 2
p6967
(lp6968
VAction
p6969
aVComedy
p6970
aVCrime
p6971
asVAngels & Demons
p6972
(lp6973
VMystery
p6974
aVThriller
p6975
asVConfessions of a Teenage Drama Queen
p6976
(lp6977
VComedy
p6978
aVFamily
p6979
aVMusic
p6980
aVRomance
p6981
asVAct of Valor
p6982
(lp6983
VAction
p6984
aVAdventure
p6985
aVDrama
p6986
aVThriller
p6987
aVWar
p6988
asVRio 2
p6989
(lp6990
VAnimation
p6991
aVAdventure
p6992
aVComedy
p6993
aVFamily
p6994
aVMusical
p6995
asVZoolander
p6996
(lp6997
VComedy
p6998
asVWALL-E
p6999
(lp7000
VAnimation
p7001
aVAdventure
p7002
aVFamily
p7003
aVSci-Fi
p7004
asVToy Story / Toy Story 2 (3D)
p7005
(lp7006
VShort
p7007
aVComedy
p7008
aVFamily
p7009
asVAnt-Man
p7010
(lp7011
VAction
p7012
aVAdventure
p7013
aVComedy
p7014
aVSci-Fi
p7015
asVWhite Chicks
p7016
(lp7017
VComedy
p7018
aVCrime
p7019
asVTyler Perry's Daddy's Little Girls
p7020
(lp7021
VDrama
p7022
aVRomance
p7023
asVAugust: Osage County
p7024
(lp7025
VDrama
p7026
asV1408
p7027
(lp7028
VFantasy
p7029
aVHorror
p7030
asVLadder 49
p7031
(lp7032
VAction
p7033
aVDrama
p7034
aVThriller
p7035
asVHere Comes the Boom
p7036
(lp7037
VAction
p7038
aVComedy
p7039
aVSport
p7040
asVBlack Mass
p7041
(lp7042
VBiography
p7043
aVCrime
p7044
aVDrama
p7045
asVAre We There Yet?
p7046
(lp7047
VAdventure
p7048
aVComedy
p7049
aVFamily
p7050
aVRomance
p7051
asVTangled
p7052
(lp7053
VAnimation
p7054
aVAdventure
p7055
aVComedy
p7056
aVFamily
p7057
aVFantasy
p7058
aVMusical
p7059
aVRomance
p7060
asVWe Were Soldiers
p7061
(lp7062
VAction
p7063
aVDrama
p7064
aVHistory
p7065
aVWar
p7066
asVBridge of Spies
p7067
(lp7068
VDrama
p7069
aVHistory
p7070
aVThriller
p7071
asVR.I.P.D.
p7072
(lp7073
VAction
p7074
aVComedy
p7075
aVFantasy
p7076
asVA Man Apart
p7077
(lp7078
VAction
p7079
aVCrime
p7080
aVDrama
p7081
aVThriller
p7082
asVRicki and the Flash
p7083
(lp7084
VComedy
p7085
aVDrama
p7086
aVMusic
p7087
asVChangeling
p7088
(lp7089
VBiography
p7090
aVCrime
p7091
aVDrama
p7092
aVMystery
p7093
aVThriller
p7094
asVThe Incredibles
p7095
(lp7096
VAnimation
p7097
aVAction
p7098
aVAdventure
p7099
aVFamily
p7100
asVIce Age
p7101
(lp7102
VAnimation
p7103
aVAdventure
p7104
aVComedy
p7105
aVFamily
p7106
aVFantasy
p7107
asVThe Exorcism of Emily Rose
p7108
(lp7109
VDrama
p7110
aVHorror
p7111
aVThriller
p7112
asVGnomeo and Juliet
p7113
(lp7114
VAnimation
p7115
aVComedy
p7116
aVTalk-Show
p7117
asVFat Albert
p7118
(lp7119
VComedy
p7120
aVFamily
p7121
aVFantasy
p7122
aVRomance
p7123
asVThe Beach
p7124
(lp7125
VAdventure
p7126
aVDrama
p7127
aVRomance
p7128
aVThriller
p7129
asVThe Divergent Series: Insurgent
p7130
(lp7131
VAdventure
p7132
aVSci-Fi
p7133
aVThriller
p7134
asVCaptain Phillips
p7135
(lp7136
VBiography
p7137
aVDrama
p7138
aVThriller
p7139
asVJourney to the West: The Demons Strike Back
p7140
(lp7141
VAdventure
p7142
aVComedy
p7143
aVFantasy
p7144
asVMother's Day
p7145
(lp7146
VComedy
p7147
aVDrama
p7148
asVKung Fu Yoga
p7149
(lp7150
VAction
p7151
aVAdventure
p7152
aVComedy
p7153
aVMystery
p7154
asVOuija: Origin of Evil
p7155
(lp7156
VHorror
p7157
aVThriller
p7158
asVAtonement
p7159
(lp7160
VDrama
p7161
aVMystery
p7162
aVRomance
p7163
aVWar
p7164
asVDragonfly
p7165
(lp7166
VDrama
p7167
aVFantasy
p7168
aVMystery
p7169
aVRomance
p7170
aVThriller
p7171
asVDreamcatcher
p7172
(lp7173
VDrama
p7174
aVHorror
p7175
aVSci-Fi
p7176
aVThriller
p7177
asVGods of Egypt
p7178
(lp7179
VAction
p7180
aVAdventure
p7181
aVFantasy
p7182
asVSaving Mr. Banks
p7183
(lp7184
VBiography
p7185
aVComedy
p7186
aVDrama
p7187
aVFamily
p7188
aVMusic
p7189
asVTerminator 3: Rise of the Machines
p7190
(lp7191
VAction
p7192
aVAdventure
p7193
aVSci-Fi
p7194
aVThriller
p7195
asVDriven
p7196
(lp7197
VCrime
p7198
aVHorror
p7199
aVMystery
p7200
aVThriller
p7201
asVMonsters, Inc.
p7202
(lp7203
VAnimation
p7204
aVAdventure
p7205
aVComedy
p7206
aVFamily
p7207
aVFantasy
p7208
asVFinal Destination
p7209
(lp7210
VHorror
p7211
aVThriller
p7212
asVCHiPs
p7213
(lp7214
VAction
p7215
aVComedy
p7216
aVCrime
p7217
asVYou Don't Mess with the Zohan
p7218
(lp7219
VAction
p7220
aVComedy
p7221
asVBlade II
p7222
(lp7223
VAction
p7224
aVHorror
p7225
aVSci-Fi
p7226
aVThriller
p7227
asVTakers
p7228
(lp7229
VAction
p7230
aVCrime
p7231
aVThriller
p7232
asVThe Gallows
p7233
(lp7234
VHorror
p7235
aVThriller
p7236
asVInto the Woods
p7237
(lp7238
VAdventure
p7239
aVComedy
p7240
aVDrama
p7241
aVFantasy
p7242
aVMusical
p7243
asVTyler Perry's A Madea Christmas
p7244
(lp7245
VComedy
p7246
aVDrama
p7247
asVChildren of Men
p7248
(lp7249
VDrama
p7250
aVSci-Fi
p7251
aVThriller
p7252
asVIntolerable Cruelty
p7253
(lp7254
VComedy
p7255
aVCrime
p7256
aVRomance
p7257
asVAlvin and the Chipmunks: Chipwrecked
p7258
(lp7259
VAnimation
p7260
aVAdventure
p7261
aVComedy
p7262
aVFamily
p7263
aVFantasy
p7264
aVMusic
p7265
asVBe Cool
p7266
(lp7267
VComedy
p7268
aVCrime
p7269
aVMusic
p7270
asVThe Ant Bully
p7271
(lp7272
VAnimation
p7273
aVAdventure
p7274
aVComedy
p7275
aVFamily
p7276
aVFantasy
p7277
asVWoman in Gold
p7278
(lp7279
VBiography
p7280
aVDrama
p7281
aVHistory
p7282
asVTyler Perry's Why Did I Get Married Too?
p7283
(lp7284
VComedy
p7285
aVDrama
p7286
aVRomance
p7287
asVCrocodile Dundee in Los Angeles
p7288
(lp7289
VAdventure
p7290
aVComedy
p7291
aVCrime
p7292
asVChicken Run
p7293
(lp7294
VAnimation
p7295
aVAdventure
p7296
aVComedy
p7297
aVDrama
p7298
aVFamily
p7299
asVThe Core
p7300
(lp7301
VAction
p7302
aVAdventure
p7303
aVSci-Fi
p7304
aVThriller
p7305
asVStomp the Yard
p7306
(lp7307
VDrama
p7308
aVMusic
p7309
aVRomance
p7310
asVHellboy II: The Golden Army
p7311
(lp7312
VAction
p7313
aVAdventure
p7314
aVFantasy
p7315
aVHorror
p7316
aVSci-Fi
p7317
asVDivine Secrets of the Ya-Ya Sisterhood
p7318
(lp7319
VDrama
p7320
asVThe Night Before
p7321
(lp7322
VComedy
p7323
asVThe Bounty Hunter
p7324
(lp7325
VAction
p7326
aVComedy
p7327
aVRomance
p7328
asVFury (2014)
p7329
(lp7330
VAction
p7331
aVDrama
p7332
aVWar
p7333
asVMadagascar 3: Europe's Most Wanted
p7334
(lp7335
VAnimation
p7336
aVAdventure
p7337
aVComedy
p7338
aVFamily
p7339
asVRiddick
p7340
(lp7341
VAction
p7342
aVSci-Fi
p7343
aVThriller
p7344
asVThe Sum of All Fears
p7345
(lp7346
VAction
p7347
aVDrama
p7348
aVThriller
p7349
aVWar
p7350
asVHotel Transylvania 2
p7351
(lp7352
VAnimation
p7353
aVComedy
p7354
aVFamily
p7355
aVFantasy
p7356
asVLove & Basketball
p7357
(lp7358
VDrama
p7359
aVRomance
p7360
aVSport
p7361
asVHorrible Bosses
p7362
(lp7363
VComedy
p7364
aVCrime
p7365
asVMemento
p7366
(lp7367
VMystery
p7368
aVThriller
p7369
asVTyler Perry's Temptation: Confessions of a Marriage Counselor
p7370
(lp7371
VDrama
p7372
aVThriller
p7373
asVHannah Montana/Miley Cyrus: Best of Both Worlds Concert Tour
p7374
(lp7375
VFamily
p7376
aVComedy
p7377
asVTrainwreck
p7378
(lp7379
VComedy
p7380
aVDrama
p7381
aVRomance
p7382
asVBadrinath Ki Dulhania
p7383
(lp7384
VComedy
p7385
aVDrama
p7386
aVRomance
p7387
asVRecess: School's Out
p7388
(lp7389
VAnimation
p7390
aVFamily
p7391
aVComedy
p7392
aVMystery
p7393
aVSci-Fi
p7394
asVDeepwater Horizon
p7395
(lp7396
VAction
p7397
aVDrama
p7398
aVThriller
p7399
asVShrek
p7400
(lp7401
VAnimation
p7402
aVAdventure
p7403
aVComedy
p7404
aVFamily
p7405
aVFantasy
p7406
asVJeepers Creepers 2
p7407
(lp7408
VHorror
p7409
asVThe Pianist
p7410
(lp7411
VBiography
p7412
aVDrama
p7413
aVWar
p7414
asVThe BFG
p7415
(lp7416
VAdventure
p7417
aVFamily
p7418
aVFantasy
p7419
asVThe One
p7420
(lp7421
VAction
p7422
aVSci-Fi
p7423
aVThriller
p7424
asVBad Santa
p7425
(lp7426
VComedy
p7427
aVCrime
p7428
aVDrama
p7429
asVPerfect Stranger
p7430
(lp7431
VCrime
p7432
aVMystery
p7433
aVThriller
p7434
asVThe Green Hornet
p7435
(lp7436
VAction
p7437
aVComedy
p7438
aVCrime
p7439
aVSci-Fi
p7440
aVThriller
p7441
asVDr. Seuss' Horton Hears a Who!
p7442
(lp7443
VAnimation
p7444
aVAdventure
p7445
aVComedy
p7446
aVFamily
p7447
aVFantasy
p7448
asVNightcrawler
p7449
(lp7450
VCrime
p7451
aVDrama
p7452
aVThriller
p7453
asVCollege Road Trip
p7454
(lp7455
VAdventure
p7456
aVComedy
p7457
aVDrama
p7458
aVFamily
p7459
asVThe Girl on the Train (2016)
p7460
(lp7461
VCrime
p7462
aVDrama
p7463
aVMystery
p7464
aVThriller
p7465
asVWilson
p7466
(lp7467
VBiography
p7468
aVDrama
p7469
aVHistory
p7470
aVMusic
p7471
aVRomance
p7472
asVFlushed Away
p7473
(lp7474
VAnimation
p7475
aVAdventure
p7476
aVComedy
p7477
aVFamily
p7478
asVLove Actually
p7479
(lp7480
VComedy
p7481
aVDrama
p7482
aVRomance
p7483
asVMoonrise Kingdom
p7484
(lp7485
VAdventure
p7486
aVComedy
p7487
aVDrama
p7488
aVRomance
p7489
asVDate Night
p7490
(lp7491
VComedy
p7492
aVCrime
p7493
aVRomance
p7494
aVThriller
p7495
asVThe Wedding Ringer
p7496
(lp7497
VComedy
p7498
asVAbout Last Night (2014)
p7499
(lp7500
VComedy
p7501
aVRomance
p7502
asVSecretariat
p7503
(lp7504
VBiography
p7505
aVDrama
p7506
aVFamily
p7507
aVHistory
p7508
aVSport
p7509
asVDude, Where's My Car?
p7510
(lp7511
VComedy
p7512
aVMystery
p7513
aVSci-Fi
p7514
asVRocky Balboa
p7515
(lp7516
VDrama
p7517
aVSport
p7518
asVCold Mountain
p7519
(lp7520
VAdventure
p7521
aVDrama
p7522
aVHistory
p7523
aVRomance
p7524
aVWar
p7525
asVThe Ring
p7526
(lp7527
VDrama
p7528
aVHorror
p7529
asVSweet November
p7530
(lp7531
VDrama
p7532
aVRomance
p7533
asVBlood Diamond
p7534
(lp7535
VAdventure
p7536
aVDrama
p7537
aVThriller
p7538
asVMonster-in-Law
p7539
(lp7540
VComedy
p7541
aVRomance
p7542
asVThe Sitter
p7543
(lp7544
VComedy
p7545
asVDue Date
p7546
(lp7547
VComedy
p7548
aVDrama
p7549
asVThe Conjuring 2
p7550
(lp7551
VHorror
p7552
aVMystery
p7553
aVThriller
p7554
asVAlmost Christmas
p7555
(lp7556
VComedy
p7557
aVDrama
p7558
asVDaddy Day Care
p7559
(lp7560
VComedy
p7561
aVFamily
p7562
asV13 Going on 30
p7563
(lp7564
VComedy
p7565
aVFantasy
p7566
aVRomance
p7567
asVNancy Drew
p7568
(lp7569
VComedy
p7570
aVCrime
p7571
aVFamily
p7572
aVMystery
p7573
aVRomance
p7574
aVThriller
p7575
asVTalladega Nights: The Ballad of Ricky Bobby
p7576
(lp7577
VAction
p7578
aVComedy
p7579
aVSport
p7580
asVThe Princess Diaries
p7581
(lp7582
VComedy
p7583
aVFamily
p7584
aVRomance
p7585
asVIce Age: Collision Course
p7586
(lp7587
VAnimation
p7588
aVAdventure
p7589
aVComedy
p7590
aVFamily
p7591
aVSci-Fi
p7592
asVEntourage
p7593
(lp7594
VComedy
p7595
aVDrama
p7596
asVFinding Nemo (3D)
p7597
(lp7598
VAnimation
p7599
aVAdventure
p7600
aVComedy
p7601
aVFamily
p7602
asVRumor Has It
p7603
g54
sVThe Time Machine
p7604
(lp7605
VSci-Fi
p7606
aVAdventure
p7607
aVAction
p7608
asVRaising Helen
p7609
(lp7610
VComedy
p7611
aVDrama
p7612
aVRomance
p7613
asVSaw
p7614
(lp7615
VHorror
p7616
aVMystery
p7617
aVThriller
p7618
asVThe Nanny Diaries
p7619
(lp7620
VComedy
p7621
aVDrama
p7622
aVRomance
p7623
asVMr. Woodcock
p7624
(lp7625
VComedy
p7626
aVRomance
p7627
aVSport
p7628
asVSlumdog Millionaire
p7629
(lp7630
VDrama
p7631
asVMen of Honor
p7632
(lp7633
VBiography
p7634
aVDrama
p7635
asVProof of Life
p7636
(lp7637
VAction
p7638
aVDrama
p7639
aVThriller
p7640
asVThe Judge
p7641
(lp7642
VCrime
p7643
aVDrama
p7644
asVLast Holiday
p7645
(lp7646
VComedy
p7647
asVJust Friends
p7648
(lp7649
VComedy
p7650
aVRomance
p7651
asVInstructions Not Included
p7652
(lp7653
VComedy
p7654
aVDrama
p7655
asVThe Hunger Games: Mockingjay - Part 2
p7656
(lp7657
VAction
p7658
aVAdventure
p7659
aVSci-Fi
p7660
aVThriller
p7661
asVSource Code
p7662
(lp7663
VMystery
p7664
aVRomance
p7665
aVSci-Fi
p7666
aVThriller
p7667
asVJoe Somebody
p7668
(lp7669
VComedy
p7670
aVDrama
p7671
asVThe Exorcist Director's Cut
p7672
(lp7673
VHorror
p7674
asVGarfield: A Tail of Two Kitties
p7675
(lp7676
VAnimation
p7677
aVComedy
p7678
aVFamily
p7679
aVFantasy
p7680
asVZoolander 2
p7681
(lp7682
VComedy
p7683
asVThe Sweetest Thing
p7684
(lp7685
VComedy
p7686
aVRomance
p7687
asVDaybreakers
p7688
(lp7689
VAction
p7690
aVHorror
p7691
aVSci-Fi
p7692
aVThriller
p7693
asVDinosaur
p7694
(lp7695
VAnimation
p7696
aVAdventure
p7697
aVFamily
p7698
aVThriller
p7699
asVMike and Dave Need Wedding Dates
p7700
(lp7701
VAdventure
p7702
aVComedy
p7703
aVRomance
p7704
asVThe Sisterhood of the Traveling Pants 2
p7705
(lp7706
VComedy
p7707
aVDrama
p7708
aVFamily
p7709
aVRomance
p7710
asVPenguins of Madagascar
p7711
(lp7712
VAnimation
p7713
aVAdventure
p7714
aVComedy
p7715
aVFamily
p7716
aVSci-Fi
p7717
asVFocus (2015)
p7718
(lp7719
VComedy
p7720
aVCrime
p7721
aVDrama
p7722
aVRomance
p7723
asVThe American
p7724
(lp7725
VCrime
p7726
aVDrama
p7727
aVThriller
p7728
asVRole Models
p7729
(lp7730
VComedy
p7731
asVPlanet 51
p7732
(lp7733
VAnimation
p7734
aVAdventure
p7735
aVComedy
p7736
aVFamily
p7737
aVSci-Fi
p7738
asVGangster Squad
p7739
(lp7740
VAction
p7741
aVCrime
p7742
aVDrama
p7743
aVThriller
p7744
asVThe Bucket List
p7745
(lp7746
VAdventure
p7747
aVComedy
p7748
aVDrama
p7749
asVAssassin's Creed
p7750
(lp7751
VAction
p7752
aVAdventure
p7753
aVDrama
p7754
aVFantasy
p7755
aVSci-Fi
p7756
asVThe Huntsman: Winter's War
p7757
(lp7758
VAction
p7759
aVAdventure
p7760
aVDrama
p7761
aVFantasy
p7762
asVThe SpongeBob Movie: Sponge Out of Water
p7763
(lp7764
VAnimation
p7765
aVAdventure
p7766
aVComedy
p7767
aVFamily
p7768
aVFantasy
p7769
asVSide Effects (2013)
p7770
(lp7771
VCrime
p7772
aVDrama
p7773
aVThriller
p7774
asVAfter the Storm
p7775
(lp7776
VDrama
p7777
asVThe Transporter
p7778
(lp7779
VAction
p7780
aVCrime
p7781
aVThriller
p7782
asVThe Original Kings of Comedy
p7783
(lp7784
VComedy
p7785
aVDocumentary
p7786
asVPower Rangers (2017)
p7787
(lp7788
VAction
p7789
aVAdventure
p7790
aVSci-Fi
p7791
asVLincoln
p7792
(lp7793
VBiography
p7794
aVDrama
p7795
aVHistory
p7796
aVWar
p7797
asVCollateral Damage
p7798
(lp7799
VAction
p7800
aVDrama
p7801
aVThriller
p7802
asVCloudy with a Chance of Meatballs
p7803
(lp7804
VAnimation
p7805
aVAdventure
p7806
aVComedy
p7807
aVFamily
p7808
aVFantasy
p7809
aVSci-Fi
p7810
asVThe 40-Year-Old Virgin
p7811
(lp7812
VComedy
p7813
aVRomance
p7814
asVStep Up
p7815
(lp7816
VCrime
p7817
aVDrama
p7818
aVMusic
p7819
aVRomance
p7820
asVLove the Coopers
p7821
(lp7822
VComedy
p7823
asVThe Devotion of Suspect X
p7824
(lp7825
VCrime
p7826
aVThriller
p7827
asVBoyhood
p7828
(lp7829
VDrama
p7830
asVThe Descendants
p7831
(lp7832
VComedy
p7833
aVDrama
p7834
asVHarry Potter and the Prisoner of Azkaban
p7835
(lp7836
VAdventure
p7837
aVFamily
p7838
aVFantasy
p7839
aVMystery
p7840
asVMe, Myself and Irene
p7841
(lp7842
VComedy
p7843
asVAgent Cody Banks 2: Destination London
p7844
(lp7845
VAction
p7846
aVAdventure
p7847
aVComedy
p7848
aVFamily
p7849
aVRomance
p7850
aVSci-Fi
p7851
asV28 Weeks Later
p7852
(lp7853
VDrama
p7854
aVHorror
p7855
aVSci-Fi
p7856
asVFor Colored Girls
p7857
(lp7858
VDrama
p7859
asVHow the Grinch Stole Christmas
p7860
(lp7861
VComedy
p7862
aVFamily
p7863
aVFantasy
p7864
asVFurious 7
p7865
(lp7866
VAction
p7867
aVCrime
p7868
aVThriller
p7869
asVBridge to Terabithia
p7870
(lp7871
VAdventure
p7872
aVDrama
p7873
aVFamily
p7874
aVFantasy
p7875
asVFast Five
p7876
(lp7877
VAction
p7878
aVCrime
p7879
aVThriller
p7880
asVPirates of the Caribbean: On Stranger Tides
p7881
(lp7882
VAction
p7883
aVAdventure
p7884
aVFantasy
p7885
asVHacksaw Ridge
p7886
(lp7887
VBiography
p7888
aVDrama
p7889
aVHistory
p7890
aVWar
p7891
asVStuck on You
p7892
(lp7893
VComedy
p7894
asVMurder by Numbers
p7895
(lp7896
VCrime
p7897
aVMystery
p7898
aVThriller
p7899
asVNow You See Me 2
p7900
(lp7901
VAction
p7902
aVAdventure
p7903
aVComedy
p7904
aVCrime
p7905
aVMystery
p7906
aVThriller
p7907
asVPan
p7908
(lp7909
VAdventure
p7910
aVFamily
p7911
aVFantasy
p7912
asV17 Again
p7913
(lp7914
VComedy
p7915
aVDrama
p7916
aVFamily
p7917
aVFantasy
p7918
asVThe Break-Up
p7919
(lp7920
VComedy
p7921
aVDrama
p7922
aVRomance
p7923
asVEnder's Game
p7924
(lp7925
VAction
p7926
aVSci-Fi
p7927
asVGet Him to the Greek
p7928
(lp7929
VComedy
p7930
aVMusic
p7931
asVJay and Silent Bob Strike Back
p7932
(lp7933
VComedy
p7934
asVThe Oscar Nominated Short Films 2017
p7935
g54
sVLive Free or Die Hard
p7936
(lp7937
VAction
p7938
aVAdventure
p7939
aVThriller
p7940
asVLights Out
p7941
(lp7942
VHorror
p7943
asVJurassic Park 3D
p7944
(lp7945
VAdventure
p7946
aVSci-Fi
p7947
aVThriller
p7948
asVCarrie (2013)
p7949
(lp7950
VDrama
p7951
aVHorror
p7952
asVThe Lord of the Rings: The Fellowship of the Ring
p7953
(lp7954
VAdventure
p7955
aVDrama
p7956
aVFantasy
p7957
asVSon of God
p7958
(lp7959
VBiography
p7960
aVDrama
p7961
aVHistory
p7962
asVPineapple Express
p7963
(lp7964
VAction
p7965
aVComedy
p7966
aVCrime
p7967
asVScooby-Doo
p7968
(lp7969
VAdventure
p7970
aVComedy
p7971
aVFamily
p7972
aVMystery
p7973
asVPrisoners
p7974
(lp7975
VCrime
p7976
aVDrama
p7977
aVMystery
p7978
aVThriller
p7979
asVFinding Nemo
p7980
(lp7981
VAnimation
p7982
aVAdventure
p7983
aVComedy
p7984
aVFamily
p7985
asVThe Boss
p7986
(lp7987
VComedy
p7988
asVProm Night (2008)
p7989
(lp7990
VHorror
p7991
aVMystery
p7992
asVZombieland
p7993
(lp7994
VAdventure
p7995
aVComedy
p7996
aVHorror
p7997
aVSci-Fi
p7998
asVIce Age: Continental Drift
p7999
(lp8000
VAnimation
p8001
aVAdventure
p8002
aVComedy
p8003
aVFamily
p8004
aVFantasy
p8005
asVChocolat
p8006
(lp8007
VDrama
p8008
aVRomance
p8009
asVStorks
p8010
(lp8011
VAnimation
p8012
aVAdventure
p8013
aVComedy
p8014
aVFamily
p8015
aVFantasy
p8016
asVCoraline
p8017
(lp8018
VAnimation
p8019
aVFamily
p8020
aVFantasy
p8021
asVThe Sentinel
p8022
(lp8023
VAction
p8024
aVCrime
p8025
aVThriller
p8026
asVMeet the Parents
p8027
(lp8028
VComedy
p8029
aVRomance
p8030
asVCats & Dogs: The Revenge of Kitty Galore
p8031
(lp8032
VAction
p8033
aVComedy
p8034
aVFamily
p8035
aVFantasy
p8036
asV300: Rise of An Empire
p8037
(lp8038
VAction
p8039
aVDrama
p8040
aVFantasy
p8041
asVThe Simpsons Movie
p8042
(lp8043
VAnimation
p8044
aVAdventure
p8045
aVComedy
p8046
asVNorbit
p8047
(lp8048
VComedy
p8049
aVRomance
p8050
asVRaw (2017)
p8051
(lp8052
VAction
p8053
aVSport
p8054
asVRed Dawn (2012)
p8055
(lp8056
VAction
p8057
aVThriller
p8058
asVJack the Giant Slayer
p8059
(lp8060
VAdventure
p8061
aVFantasy
p8062
asV10 Cloverfield Lane
p8063
(lp8064
VDrama
p8065
aVHorror
p8066
aVMystery
p8067
aVSci-Fi
p8068
aVThriller
p8069
asVSavages (2012)
p8070
(lp8071
VCrime
p8072
aVDrama
p8073
aVThriller
p8074
asVJimmy Neutron: Boy Genius
p8075
(lp8076
VAnimation
p8077
aVAction
p8078
aVAdventure
p8079
aVComedy
p8080
aVFamily
p8081
aVSci-Fi
p8082
asVMagic Mike
p8083
(lp8084
VComedy
p8085
aVDrama
p8086
asVHouse of Wax
p8087
(lp8088
VHorror
p8089
asVBad Boys II
p8090
(lp8091
VAction
p8092
aVComedy
p8093
aVCrime
p8094
aVThriller
p8095
asVStraight Outta Compton
p8096
(lp8097
VBiography
p8098
aVCrime
p8099
aVDrama
p8100
aVHistory
p8101
aVMusic
p8102
asVThe Hours
p8103
(lp8104
VDrama
p8105
aVRomance
p8106
asVJack Reacher: Never Go Back
p8107
(lp8108
VAction
p8109
aVAdventure
p8110
aVCrime
p8111
aVMystery
p8112
aVThriller
p8113
asVGold
p8114
(lp8115
VAdventure
p8116
aVDrama
p8117
aVThriller
p8118
asVThe King's Speech
p8119
(lp8120
VBiography
p8121
aVDrama
p8122
asVThe Debt
p8123
(lp8124
VDrama
p8125
aVThriller
p8126
asVDon't Breathe
p8127
(lp8128
VCrime
p8129
aVHorror
p8130
aVThriller
p8131
asVAlien Vs. Predator
p8132
(lp8133
VAction
p8134
aVHorror
p8135
aVSci-Fi
p8136
aVThriller
p8137
asVAmerican Gangster
p8138
(lp8139
VBiography
p8140
aVCrime
p8141
aVDrama
p8142
asVThe Legend of Zorro
p8143
(lp8144
VAction
p8145
aVAdventure
p8146
aVWestern
p8147
asVScary Movie 5
p8148
(lp8149
VComedy
p8150
asVScary Movie 4
p8151
(lp8152
VComedy
p8153
asVScary Movie 3
p8154
(lp8155
VComedy
p8156
asVScary Movie 2
p8157
(lp8158
VComedy
p8159
asVSpider-Man
p8160
(lp8161
VAction
p8162
aVAdventure
p8163
asVBen-Hur (2016)
p8164
(lp8165
VAction
p8166
aVAdventure
p8167
aVDrama
p8168
asVNon-Stop
p8169
(lp8170
VAction
p8171
aVMystery
p8172
aVThriller
p8173
asV30 Minutes or Less
p8174
(lp8175
VAction
p8176
aVComedy
p8177
aVCrime
p8178
asVThe Case for Christ
p8179
(lp8180
VDrama
p8181
asVPain and Gain
p8182
(lp8183
VReality-TV
p8184
asVOcean's Thirteen
p8185
(lp8186
VCrime
p8187
aVThriller
p8188
asVThe Bourne Identity
p8189
(lp8190
VAction
p8191
aVMystery
p8192
aVThriller
p8193
asVLawless
p8194
(lp8195
VDrama
p8196
aVMusic
p8197
aVRomance
p8198
asVForgetting Sarah Marshall
p8199
(lp8200
VComedy
p8201
aVDrama
p8202
aVRomance
p8203
asVAnchorman: The Legend of Ron Burgundy
p8204
(lp8205
VComedy
p8206
asVThe Pursuit of Happyness
p8207
(lp8208
VBiography
p8209
aVDrama
p8210
asVMonster Trucks
p8211
(lp8212
VAction
p8213
aVAdventure
p8214
aVComedy
p8215
aVFamily
p8216
aVFantasy
p8217
aVSci-Fi
p8218
asVThe Matrix Revolutions
p8219
(lp8220
VAction
p8221
aVSci-Fi
p8222
asVThe Taking of Pelham 1 2 3
p8223
(lp8224
VAction
p8225
aVCrime
p8226
aVThriller
p8227
asVThe Banger Sisters
p8228
(lp8229
VComedy
p8230
aVDrama
p8231
asVHappy Feet
p8232
(lp8233
VAnimation
p8234
aVComedy
p8235
aVFamily
p8236
aVMusic
p8237
aVMusical
p8238
aVRomance
p8239
asVRace to Witch Mountain
p8240
(lp8241
VAction
p8242
aVAdventure
p8243
aVFamily
p8244
aVFantasy
p8245
aVSci-Fi
p8246
aVThriller
p8247
asVEvil Dead (2013)
p8248
(lp8249
VFantasy
p8250
aVHorror
p8251
aVThriller
p8252
asVThe Wolverine
p8253
(lp8254
VAction
p8255
aVAdventure
p8256
aVSci-Fi
p8257
aVThriller
p8258
asVThe Hills Have Eyes
p8259
(lp8260
VHorror
p8261
asVVanilla Sky
p8262
(lp8263
VFantasy
p8264
aVMystery
p8265
aVRomance
p8266
aVSci-Fi
p8267
aVThriller
p8268
asVAlice in Wonderland (2010)
p8269
(lp8270
VAdventure
p8271
aVFamily
p8272
aVFantasy
p8273
asVKingdom Come
p8274
(lp8275
VComedy
p8276
aVDrama
p8277
aVFamily
p8278
asVThe Other Guys
p8279
(lp8280
VAction
p8281
aVComedy
p8282
aVCrime
p8283
asVHitch
p8284
(lp8285
VComedy
p8286
aVRomance
p8287
asVA Knight's Tale
p8288
(lp8289
VAction
p8290
aVAdventure
p8291
aVRomance
p8292
asVTeam America: World Police
p8293
(lp8294
VAction
p8295
aVComedy
p8296
asVHotel for Dogs
p8297
(lp8298
VComedy
p8299
aVFamily
p8300
asVKill Bill Vol. 2
p8301
(lp8302
VAction
p8303
aVCrime
p8304
aVDrama
p8305
aVThriller
p8306
asVHeartbreakers
p8307
(lp8308
VComedy
p8309
aVCrime
p8310
aVRomance
p8311
asVKill Bill Vol. 1
p8312
(lp8313
VAction
p8314
aVCrime
p8315
aVThriller
p8316
asVHe's Just Not That Into You
p8317
(lp8318
VComedy
p8319
aVDrama
p8320
aVRomance
p8321
asVReturn to Me
p8322
(lp8323
VComedy
p8324
aVDrama
p8325
aVRomance
p8326
asVTyler Perry's Madea's Witness Protection
p8327
(lp8328
VComedy
p8329
aVCrime
p8330
aVDrama
p8331
asVAnnie (2014)
p8332
(lp8333
VComedy
p8334
aVDrama
p8335
aVFamily
p8336
aVMusical
p8337
asVFantasia 2000 (35mm & IMAX)
p8338
g54
sVThe Dark Knight
p8339
(lp8340
VAction
p8341
aVCrime
p8342
aVDrama
p8343
aVThriller
p8344
asVAngel Eyes
p8345
(lp8346
VDrama
p8347
aVRomance
p8348
asVBrooklyn
p8349
(lp8350
VDrama
p8351
aVRomance
p8352
asVCowboys & Aliens
p8353
(lp8354
VAction
p8355
aVSci-Fi
p8356
aVThriller
p8357
aVWestern
p8358
asVThe Hitchhiker's Guide to the Galaxy
p8359
(lp8360
VAdventure
p8361
aVComedy
p8362
aVSci-Fi
p8363
asVDerailed
p8364
(lp8365
VCrime
p8366
aVDrama
p8367
aVThriller
p8368
asVHarry Potter and the Deathly Hallows Part 1
p8369
(lp8370
VAdventure
p8371
aVFamily
p8372
aVFantasy
p8373
aVMystery
p8374
asVHarry Potter and the Deathly Hallows Part 2
p8375
g54
sVX-Men Origins: Wolverine
p8376
(lp8377
VAction
p8378
aVAdventure
p8379
aVSci-Fi
p8380
aVThriller
p8381
asVIn the Heart of the Sea
p8382
(lp8383
VAction
p8384
aVAdventure
p8385
aVBiography
p8386
aVDrama
p8387
aVHistory
p8388
aVThriller
p8389
asVThe Switch
p8390
(lp8391
VComedy
p8392
aVDrama
p8393
aVRomance
p8394
asVSing
p8395
(lp8396
VAnimation
p8397
aVComedy
p8398
aVFamily
p8399
aVMusic
p8400
asVGhost Rider
p8401
(lp8402
VAction
p8403
aVFantasy
p8404
aVThriller
p8405
asVPaul Blart: Mall Cop
p8406
(lp8407
VAction
p8408
aVComedy
p8409
aVCrime
p8410
aVFamily
p8411
asVMonsters, Inc. (3D)
p8412
(lp8413
VAnimation
p8414
aVAdventure
p8415
aVComedy
p8416
aVFamily
p8417
aVFantasy
p8418
asVThe Pirates! Band of Misfits
p8419
(lp8420
VAnimation
p8421
aVAdventure
p8422
aVComedy
p8423
aVFamily
p8424
asVThe Finest Hours
p8425
(lp8426
VAction
p8427
aVDrama
p8428
aVHistory
p8429
aVThriller
p8430
asVSwimFan
p8431
(lp8432
VDrama
p8433
aVThriller
p8434
asVJoyful Noise
p8435
(lp8436
VComedy
p8437
aVDrama
p8438
aVMusic
p8439
asVAliens Vs. Predator - Requiem
p8440
(lp8441
VAction
p8442
aVHorror
p8443
aVSci-Fi
p8444
aVThriller
p8445
asV2012
p8446
(lp8447
VAction
p8448
aVAdventure
p8449
aVSci-Fi
p8450
asVThe Big Short
p8451
(lp8452
VBiography
p8453
aVComedy
p8454
aVDrama
p8455
aVHistory
p8456
asVGet Rich or Die Tryin'
p8457
(lp8458
VBiography
p8459
aVCrime
p8460
aVDrama
p8461
aVMusic
p8462
asVNapoleon Dynamite
p8463
(lp8464
VComedy
p8465
asVSky High
p8466
(lp8467
VAdventure
p8468
aVComedy
p8469
aVFamily
p8470
aVSci-Fi
p8471
asVThe Curious Case of Benjamin Button
p8472
(lp8473
VDrama
p8474
aVFantasy
p8475
aVRomance
p8476
asVMagnificent Desolation (IMAX)
p8477
(lp8478
VDocumentary
p8479
aVAnimation
p8480
aVShort
p8481
asVA Good Day to Die Hard
p8482
(lp8483
VAction
p8484
aVThriller
p8485
asVRed Riding Hood
p8486
(lp8487
VFantasy
p8488
aVHorror
p8489
aVMystery
p8490
aVThriller
p8491
asVDinner for Schmucks
p8492
(lp8493
VComedy
p8494
asVDumb and Dumberer: When Harry Met Lloyd
p8495
(lp8496
VComedy
p8497
asVThe Fog (2005)
p8498
(lp8499
VHorror
p8500
asVDistrict 9
p8501
(lp8502
VAction
p8503
aVSci-Fi
p8504
aVThriller
p8505
asVI, Robot
p8506
(lp8507
VAction
p8508
aVCrime
p8509
aVDrama
p8510
aVMystery
p8511
aVSci-Fi
p8512
aVThriller
p8513
asVWreck-It Ralph
p8514
(lp8515
VAnimation
p8516
aVAdventure
p8517
aVComedy
p8518
aVFamily
p8519
aVFantasy
p8520
asVSecret Window
p8521
(lp8522
VMystery
p8523
aVThriller
p8524
asVPete's Dragon (2016)
p8525
(lp8526
VAdventure
p8527
aVFamily
p8528
aVFantasy
p8529
asVHalloween II (2009)
p8530
(lp8531
VHorror
p8532
asVSouthpaw
p8533
(lp8534
VDrama
p8535
aVSport
p8536
asVThe Village
p8537
(lp8538
VDrama
p8539
aVMystery
p8540
aVThriller
p8541
asVThe Spiderwick Chronicles
p8542
(lp8543
VAdventure
p8544
aVFamily
p8545
aVFantasy
p8546
asVAbraham Lincoln: Vampire Hunter
p8547
(lp8548
VAction
p8549
aVFantasy
p8550
aVHorror
p8551
asVAbout Schmidt
p8552
(lp8553
VComedy
p8554
aVDrama
p8555
asVInside Out
p8556
(lp8557
VAnimation
p8558
aVAdventure
p8559
aVComedy
p8560
aVDrama
p8561
aVFamily
p8562
aVFantasy
p8563
asVBatman v Superman: Dawn of Justice
p8564
(lp8565
VAction
p8566
aVAdventure
p8567
aVSci-Fi
p8568
asVOld Dogs
p8569
(lp8570
VComedy
p8571
aVFamily
p8572
asVAvatar
p8573
(lp8574
VAction
p8575
aVAdventure
p8576
aVFantasy
p8577
aVSci-Fi
p8578
asVNeighbors
p8579
(lp8580
VComedy
p8581
asVManchester by the Sea
p8582
(lp8583
VDrama
p8584
asVShark Tale
p8585
(lp8586
VAnimation
p8587
aVAdventure
p8588
aVComedy
p8589
aVFamily
p8590
asVCurious George
p8591
(lp8592
VAnimation
p8593
aVAdventure
p8594
aVComedy
p8595
aVFamily
p8596
asVAvengers: Age of Ultron
p8597
(lp8598
VAction
p8599
aVAdventure
p8600
aVSci-Fi
p8601
asVJohnson Family Vacation
p8602
(lp8603
VComedy
p8604
asVResident Evil: The Final Chapter
p8605
(lp8606
VAction
p8607
aVHorror
p8608
aVSci-Fi
p8609
aVThriller
p8610
asVThe Secret Life of Walter Mitty
p8611
(lp8612
VAdventure
p8613
aVComedy
p8614
aVDrama
p8615
aVFantasy
p8616
aVRomance
p8617
asVHollywood Homicide
p8618
(lp8619
VAction
p8620
aVComedy
p8621
aVCrime
p8622
aVThriller
p8623
asVCouples Retreat
p8624
(lp8625
VComedy
p8626
asVThe Kingdom
p8627
(lp8628
VAction
p8629
aVDrama
p8630
aVThriller
p8631
asVWhen the Game Stands Tall
p8632
(lp8633
VDrama
p8634
aVFamily
p8635
aVSport
p8636
asVDolphin Tale
p8637
(lp8638
VDrama
p8639
aVFamily
p8640
asVThe Wedding Date
p8641
(lp8642
VComedy
p8643
aVRomance
p8644
asVThe Best of Me
p8645
(lp8646
VDrama
p8647
aVRomance
p8648
asVThe Last House on the Left (2009)
p8649
(lp8650
VCrime
p8651
aVHorror
p8652
aVThriller
p8653
asVTransformers: Age of Extinction
p8654
(lp8655
VAction
p8656
aVAdventure
p8657
aVSci-Fi
p8658
asVRobots
p8659
(lp8660
VAnimation
p8661
aVAdventure
p8662
aVComedy
p8663
aVFamily
p8664
aVSci-Fi
p8665
asVPaddington
p8666
(lp8667
VComedy
p8668
aVFamily
p8669
aVFantasy
p8670
asVSlamma Jamma
p8671
(lp8672
VDrama
p8673
aVSport
p8674
asVChristmas with the Kranks
p8675
(lp8676
VComedy
p8677
aVFamily
p8678
asVInception
p8679
(lp8680
VAction
p8681
aVAdventure
p8682
aVSci-Fi
p8683
aVThriller
p8684
asVOrange County
p8685
(lp8686
VComedy
p8687
aVDrama
p8688
aVRomance
p8689
asVHollow Man
p8690
(lp8691
VAction
p8692
aVHorror
p8693
aVSci-Fi
p8694
aVThriller
p8695
asVNew Year's Eve
p8696
(lp8697
VComedy
p8698
aVRomance
p8699
asVLemony Snicket's A Series of Unfortunate Events
p8700
(lp8701
VAdventure
p8702
aVDrama
p8703
aVFamily
p8704
asV10,000 B.C.
p8705
(lp8706
VComedy
p8707
asVThe Princess Diaries 2: Royal Engagement
p8708
(lp8709
VComedy
p8710
aVFamily
p8711
aVRomance
p8712
asVNorman: The Moderate Rise and Tragic Fall of a New York Fixer
p8713
(lp8714
VDrama
p8715
aVThriller
p8716
asVCreed
p8717
(lp8718
VDrama
p8719
aVSport
p8720
asVThe Ring Two
p8721
(lp8722
VHorror
p8723
aVMystery
p8724
asVHoney
p8725
(lp8726
VDrama
p8727
aVMusic
p8728
aVRomance
p8729
asVKing Arthur
p8730
(lp8731
VAction
p8732
aVAdventure
p8733
aVDrama
p8734
aVFantasy
p8735
asVYour Name.
p8736
(lp8737
VAnimation
p8738
aVDrama
p8739
aVFantasy
p8740
aVRomance
p8741
asVAustin Powers in Goldmember
p8742
(lp8743
VAction
p8744
aVComedy
p8745
aVCrime
p8746
asVKiss of the Dragon
p8747
(lp8748
VAction
p8749
aVCrime
p8750
aVDrama
p8751
aVThriller
p8752
asVBefore I Fall
p8753
(lp8754
VDrama
p8755
aVMystery
p8756
asVThe Missing
p8757
(lp8758
VCrime
p8759
aVDrama
p8760
aVMystery
p8761
asVWalk the Line
p8762
(lp8763
VBiography
p8764
aVDrama
p8765
aVMusic
p8766
aVRomance
p8767
asVThe League of Extraordinary Gentlemen
p8768
(lp8769
VAction
p8770
aVAdventure
p8771
aVFantasy
p8772
asVThe Lion King (in 3D)
p8773
(lp8774
VComedy
p8775
asVCloverfield
p8776
(lp8777
VAction
p8778
aVHorror
p8779
aVSci-Fi
p8780
aVThriller
p8781
asVThe Last Song
p8782
(lp8783
VDrama
p8784
aVFamily
p8785
aVMusic
p8786
aVRomance
p8787
asVBreach
p8788
(lp8789
VBiography
p8790
aVCrime
p8791
aVDrama
p8792
aVHistory
p8793
aVThriller
p8794
asVMoneyball
p8795
(lp8796
VBiography
p8797
aVDrama
p8798
aVSport
p8799
asVWhen the Bough Breaks
p8800
(lp8801
VDrama
p8802
aVHorror
p8803
aVMystery
p8804
aVThriller
p8805
asVHardball
p8806
(lp8807
VDrama
p8808
aVSport
p8809
asVUn Padre No Tan Padre
p8810
(lp8811
VComedy
p8812
asVSeabiscuit
p8813
(lp8814
VDrama
p8815
aVHistory
p8816
aVSport
p8817
asVThe Karate Kid
p8818
(lp8819
VAction
p8820
aVDrama
p8821
aVFamily
p8822
aVSport
p8823
asVThe Guilt Trip
p8824
(lp8825
VComedy
p8826
aVDrama
p8827
asVTeenage Mutant Ninja Turtles: Out of the Shadows
p8828
(lp8829
VAction
p8830
aVAdventure
p8831
aVComedy
p8832
aVSci-Fi
p8833
asVThe Stepford Wives
p8834
(lp8835
VComedy
p8836
aVSci-Fi
p8837
aVThriller
p8838
asVGone in 60 Seconds
p8839
(lp8840
VAction
p8841
aVCrime
p8842
aVThriller
p8843
asVUp
p8844
(lp8845
VAnimation
p8846
aVAdventure
p8847
aVComedy
p8848
aVFamily
p8849
asVFriday the 13th (2009)
p8850
(lp8851
VHorror
p8852
asVThe Shack
p8853
(lp8854
VDrama
p8855
aVFantasy
p8856
asVRango
p8857
(lp8858
VAnimation
p8859
aVAdventure
p8860
aVComedy
p8861
aVFamily
p8862
aVWestern
p8863
asVEarth (2009)
p8864
(lp8865
VShort
p8866
aVHistory
p8867
asVAnchorman 2: The Legend Continues
p8868
(lp8869
VComedy
p8870
asVPaul Blart: Mall Cop 2
p8871
(lp8872
VAction
p8873
aVComedy
p8874
aVCrime
p8875
aVFamily
p8876
asVAbout a Boy
p8877
(lp8878
VComedy
p8879
aVDrama
p8880
aVRomance
p8881
asVBook of Shadows: Blair Witch 2
p8882
(lp8883
VAdventure
p8884
aVFantasy
p8885
aVHorror
p8886
aVMystery
p8887
aVThriller
p8888
asVA Walk to Remember
p8889
(lp8890
VDrama
p8891
aVRomance
p8892
asVHellboy
p8893
(lp8894
VAction
p8895
aVFantasy
p8896
aVHorror
p8897
aVSci-Fi
p8898
asVStar Trek
p8899
(lp8900
VAction
p8901
aVAdventure
p8902
aVMystery
p8903
aVSci-Fi
p8904
asVDrag Me to Hell
p8905
(lp8906
VHorror
p8907
aVThriller
p8908
asVThirteen Ghosts
p8909
(lp8910
VHorror
p8911
asVValentine's Day
p8912
(lp8913
VComedy
p8914
aVRomance
p8915
asVTraining Day
p8916
(lp8917
VAction
p8918
aVCrime
p8919
aVDrama
p8920
asVNational Security
p8921
(lp8922
VAction
p8923
aVComedy
p8924
aVCrime
p8925
aVThriller
p8926
asVDirty Grandpa
p8927
(lp8928
VComedy
p8929
asVRide Along 2
p8930
(lp8931
VAction
p8932
aVComedy
p8933
asVAlvin and the Chipmunks: The Road Chip
p8934
(lp8935
VAnimation
p8936
aVAdventure
p8937
aVComedy
p8938
aVFamily
p8939
aVFantasy
p8940
aVMusic
p8941
asVThe Book of Eli
p8942
(lp8943
VAction
p8944
aVAdventure
p8945
aVDrama
p8946
aVThriller
p8947
asVMiss Congeniality
p8948
(lp8949
VAction
p8950
aVComedy
p8951
aVCrime
p8952
aVRomance
p8953
asVStar Wars: The Clone Wars
p8954
(lp8955
VAnimation
p8956
aVAction
p8957
aVAdventure
p8958
aVDrama
p8959
aVFantasy
p8960
aVSci-Fi
p8961
asVEmployee of the Month
p8962
(lp8963
VComedy
p8964
aVRomance
p8965
asVThe Haunting in Connecticut
p8966
(lp8967
VDrama
p8968
aVHorror
p8969
aVMystery
p8970
aVThriller
p8971
asVThe Boxtrolls
p8972
(lp8973
VAnimation
p8974
aVAdventure
p8975
aVComedy
p8976
aVFamily
p8977
aVFantasy
p8978
asVKevin Hart: What Now?
p8979
(lp8980
VDocumentary
p8981
aVComedy
p8982
asVBorat: Cultural Learnings of America for Make Benefit Glorious Nation of Kazakhstan
p8983
(lp8984
VComedy
p8985
asVKingdom of Heaven
p8986
(lp8987
VAction
p8988
aVAdventure
p8989
aVDrama
p8990
aVHistory
p8991
aVWar
p8992
asVTed
p8993
(lp8994
VComedy
p8995
aVFantasy
p8996
asVKangaroo Jack
p8997
(lp8998
VAction
p8999
aVAdventure
p9000
aVComedy
p9001
aVCrime
p9002
asVLooper
p9003
(lp9004
VAction
p9005
aVCrime
p9006
aVDrama
p9007
aVSci-Fi
p9008
aVThriller
p9009
asVZero Dark Thirty
p9010
(lp9011
VDrama
p9012
aVHistory
p9013
aVThriller
p9014
asVEasy A
p9015
(lp9016
VComedy
p9017
aVDrama
p9018
aVRomance
p9019
asVInvictus
p9020
(lp9021
VBiography
p9022
aVDrama
p9023
aVHistory
p9024
aVSport
p9025
asVJackass Presents: Bad Grandpa
p9026
(lp9027
VComedy
p9028
asVBeverly Hills Chihuahua
p9029
(lp9030
VAdventure
p9031
aVComedy
p9032
aVDrama
p9033
aVFamily
p9034
aVRomance
p9035
asVSurrogates
p9036
(lp9037
VAction
p9038
aVSci-Fi
p9039
aVThriller
p9040
asVThe Holiday
p9041
(lp9042
VComedy
p9043
aVRomance
p9044
asV40 Days and 40 Nights
p9045
(lp9046
VComedy
p9047
aVRomance
p9048
asVCoyote Ugly
p9049
(lp9050
VComedy
p9051
aVDrama
p9052
aVMusic
p9053
aVRomance
p9054
asVSave the Last Dance
p9055
(lp9056
VDrama
p9057
aVMusic
p9058
aVRomance
p9059
asV42
p9060
(lp9061
VBiography
p9062
aVDrama
p9063
aVSport
p9064
asVRugrats Go Wild
p9065
(lp9066
VAnimation
p9067
aVAdventure
p9068
aVComedy
p9069
aVFamily
p9070
aVFantasy
p9071
aVMusical
p9072
asVWe Are Marshall
p9073
(lp9074
VDrama
p9075
aVSport
p9076
asVCellular
p9077
(lp9078
VAction
p9079
aVCrime
p9080
aVThriller
p9081
asVMr. Peabody & Sherman
p9082
(lp9083
VAnimation
p9084
aVAdventure
p9085
aVComedy
p9086
aVFamily
p9087
aVSci-Fi
p9088
asVRunaway Jury
p9089
(lp9090
VDrama
p9091
aVThriller
p9092
asVWhere the Wild Things Are
p9093
(lp9094
VAdventure
p9095
aVDrama
p9096
aVFamily
p9097
aVFantasy
p9098
asVLife (2017)
p9099
(lp9100
VHorror
p9101
aVSci-Fi
p9102
aVThriller
p9103
asVHanna
p9104
(lp9105
VAction
p9106
aVDrama
p9107
aVThriller
p9108
asVK-PAX
p9109
(lp9110
VDrama
p9111
aVSci-Fi
p9112
asVFist Fight
p9113
(lp9114
VComedy
p9115
asVLarry Crowne
p9116
(lp9117
VComedy
p9118
aVDrama
p9119
aVRomance
p9120
asVJolly Llb 2
p9121
(lp9122
VComedy
p9123
aVDrama
p9124
asVResident Evil: Extinction
p9125
(lp9126
VAction
p9127
aVHorror
p9128
aVSci-Fi
p9129
aVThriller
p9130
asVLast Vegas
p9131
(lp9132
VComedy
p9133
asVThe Rite
p9134
(lp9135
VDrama
p9136
aVHorror
p9137
aVMystery
p9138
aVThriller
p9139
asVHarry Potter and the Half-Blood Prince
p9140
(lp9141
VAdventure
p9142
aVFamily
p9143
aVFantasy
p9144
aVMystery
p9145
asVSpy Kids 2: The Island of Lost Dreams
p9146
(lp9147
VAction
p9148
aVAdventure
p9149
aVComedy
p9150
aVFamily
p9151
aVSci-Fi
p9152
asVGuardians of the Galaxy
p9153
(lp9154
VAction
p9155
aVAdventure
p9156
aVSci-Fi
p9157
asVThe Host (2013)
p9158
(lp9159
VAction
p9160
aVAdventure
p9161
aVRomance
p9162
aVSci-Fi
p9163
aVThriller
p9164
asVSchool of Rock
p9165
(lp9166
VComedy
p9167
aVFamily
p9168
aVMusic
p9169
asVPaper Towns
p9170
(lp9171
VDrama
p9172
aVMystery
p9173
aVRomance
p9174
asVDallas Buyers Club
p9175
(lp9176
VBiography
p9177
aVDrama
p9178
asVUnderworld: Blood Wars
p9179
(lp9180
VAction
p9181
aVAdventure
p9182
aVFantasy
p9183
asVBitter Harvest
p9184
(lp9185
VDrama
p9186
aVRomance
p9187
aVWar
p9188
as.