(dp0
VFreddy Vs. Jason
p1
V3,014
p2
sVVampires Suck
p3
V3,233
p4
sVYes Man
p5
V3,434
p6
sVLife of Pi
p7
V2,946
p8
sVThe Crazies
p9
V2,479
p10
sVCradle 2 the Grave
p11
V2,625
p12
sVNanny McPhee Returns
p13
V2,798
p14
sVThe Blind Side
p15
V3,407
p16
sVAlvin and the Chipmunks: The Squeakquel
p17
V3,747
p18
sVWe're the Millers
p19
V3,445
p20
sVNo Good Deed (2014)
p21
V2,175
p22
sVTitanic 3D
p23
V3,674
p24
sVDefinitely, Maybe
p25
V2,220
p26
sVDomestic Disturbance
p27
V2,910
p28
sVThe Muppets
p29
V3,440
p30
sVThe Benchwarmers
p31
V3,282
p32
sVThe Amityville Horror (2005)
p33
V3,323
p34
sVGuess Who
p35
V3,147
p36
sVRiding in Cars with Boys
p37
V2,770
p38
sVPaul
p39
V2,806
p40
sVLee Daniels' The Butler
p41
V3,330
p42
sVEvan Almighty
p43
V3,636
p44
sVJohn Carter
p45
V3,749
p46
sVGridiron Gang
p47
V3,510
p48
sV3:10 to Yuma (2007)
p49
V3,006
p50
sVThe Amazing Spider-Man
p51
V4,318
p52
sVBedtime Stories
p53
V3,684
p54
sVWar Dogs
p55
V3,258
p56
sVBrooklyn's Finest
p57
V1,939
p58
sVGosford Park
p59
V918
p60
sVThe Texas Chainsaw Massacre
p61
V3,018
p62
sVThe Hateful Eight
p63
V2,938
p64
sVTwilight
p65
V3,649
p66
sVHow to Lose a Guy in 10 Days
p67
V2,923
p68
sVMan of Steel
p69
V4,207
p70
sVI Am Legend
p71
V3,648
p72
sVLegion (2010)
p73
V2,476
p74
sVPride and Prejudice
p75
V1,335
p76
sVKnocked Up
p77
V2,975
p78
sVX-Men
p79
V3,112
p80
sVMaid in Manhattan
p81
V3,050
p82
sVThe Day After Tomorrow
p83
V3,444
p84
sVMy Big Fat Greek Wedding 2
p85
V3,179
p86
sVMarch of the Penguins
p87
V2,506
p88
sVGood Boy!
p89
V3,225
p90
sVLittle Fockers
p91
V3,675
p92
sVCaptain America: The First Avenger
p93
V3,715
p94
sVAlexander and the Terrible, Horrible, No Good, Very Bad Day
p95
V3,117
p96
sVSyriana
p97
V1,775
p98
sVAgent Cody Banks
p99
V3,369
p100
sVThis is the End
p101
V3,055
p102
sVInferno
p103
V3,576
p104
sVEpic
p105
V3,894
p106
sVJumper
p107
V3,430
p108
sVJuno
p109
V2,534
p110
sVBrother Bear
p111
V3,030
p112
sVThe Wedding Planner
p113
V2,785
p114
sVJoy Ride
p115
V2,522
p116
sVKillers
p117
V2,859
p118
sVGlory Road
p119
V2,397
p120
sVHearts in Atlantis
p121
V2,010
p122
sVAnacondas: The Hunt for the Blood Orchid
p123
V2,905
p124
sVStep Up 2 the Streets
p125
V2,528
p126
sVOculus
p127
V2,648
p128
sVThat Awkward Moment
p129
V2,809
p130
sVThe Heat
p131
V3,184
p132
sVThe Campaign
p133
V3,302
p134
sVReindeer Games
p135
V2,204
p136
sV16 Blocks
p137
V2,706
p138
sVDude, Where's My Car?
p139
V2,100
p140
sVIron Man 2
p141
V4,390
p142
sVIron Man 3
p143
V4,253
p144
sVThe Lone Ranger
p145
V3,904
p146
sVToy Story 3
p147
V4,028
p148
sVBruno
p149
V2,759
p150
sVTyler Perry's Madea's Big Happy Family
p151
V2,288
p152
sVFahrenheit 9/11
p153
V2,011
p154
sVThe Perfect Guy
p155
V2,230
p156
sVThe LEGO Movie
p157
V3,890
p158
sVThe Hangover Part II
p159
V3,675
p160
sVEarth to Echo
p161
V3,230
p162
sVGod's Not Dead
p163
V1,860
p164
sVTyler Perry's I Can Do Bad All By Myself
p165
V2,255
p166
sVSex and the City 2
p167
V3,445
p168
sVThe Twilight Saga: Eclipse
p169
V4,468
p170
sVJohn Q.
p171
V2,505
p172
sVCrouching Tiger, Hidden Dragon
p173
V2,027
p174
sVJupiter Ascending
p175
V3,181
p176
sVAli
p177
V2,521
p178
sVSicario
p179
V2,620
p180
sVClockstoppers
p181
V2,563
p182
sVIron Man
p183
V4,154
p184
sVSinister 2
p185
V2,799
p186
sVMichael Clayton
p187
V2,585
p188
sVJersey Girl
p189
V1,821
p190
sVThe Brothers
p191
V1,378
p192
sVHotel Rwanda
p193
V824
p194
sVRise of the Planet of the Apes
p195
V3,691
p196
sVRush (2013)
p197
V2,308
p198
sVHero
p199
V2,175
p200
sVBride Wars
p201
V3,228
p202
sVBlades of Glory
p203
V3,467
p204
sVThe Woman in Black 2: Angel of Death
p205
V2,602
p206
sVScream 4
p207
V3,314
p208
sVThe Forbidden Kingdom
p209
V3,151
p210
sVG.I. Joe: The Rise of Cobra
p211
V4,007
p212
sVFlorence Foster Jenkins
p213
V1,528
p214
sVDreamgirls
p215
V2,797
p216
sVChronicle (2012)
p217
V2,908
p218
sVNick and Norah's Infinite Playlist
p219
V2,421
p220
sVThe Texas Chainsaw Massacre: The Beginning
p221
V2,820
p222
sVThis Christmas
p223
V1,921
p224
sVGangs of New York
p225
V2,340
p226
sVScooby-Doo 2: Monsters Unleashed
p227
V3,312
p228
sVA Haunted House
p229
V2,160
p230
sVThe DUFF
p231
V2,622
p232
sVMona Lisa Smile
p233
V2,714
p234
sVStar Wars: Episode I - The Phantom Menace (in 3D)
p235
V2,655
p236
sVTransporter 3
p237
V2,626
p238
sVTransporter 2
p239
V3,320
p240
sVWhat's the Worst That Could Happen?
p241
V2,675
p242
sVThe Back-Up Plan
p243
V3,280
p244
sVReign of Fire
p245
V2,629
p246
sVMcFarland, USA
p247
V2,792
p248
sVWonder Boys
p249
V1,509
p250
sVTaken 3
p251
V3,594
p252
sVG.I. Joe: Retaliation
p253
V3,734
p254
sVThe Last Witch Hunter
p255
V3,082
p256
sVHot Pursuit
p257
V3,037
p258
sVBarbershop
p259
V2,176
p260
sVPlanes
p261
V3,716
p262
sV22 Jump Street
p263
V3,426
p264
sVIdentity Thief
p265
V3,230
p266
sVHigh Crimes
p267
V2,747
p268
sVUnbreakable
p269
V2,708
p270
sVRise of the Guardians
p271
V3,672
p272
sVMission to Mars
p273
V3,101
p274
sVIn Her Shoes
p275
V2,840
p276
sVDraft Day
p277
V2,781
p278
sVBandits
p279
V3,207
p280
sVTaking Lives
p281
V2,705
p282
sVThe Mortal Instruments: City of Bones
p283
V3,118
p284
sVThe Tuxedo
p285
V3,022
p286
sVGothika
p287
V2,382
p288
sVMatchstick Men
p289
V2,711
p290
sVJack Reacher
p291
V3,352
p292
sVThe Grudge 2
p293
V3,214
p294
sVRed Tails
p295
V2,573
p296
sVThe Martian
p297
V3,854
p298
sVMission: Impossible - Ghost Protocol
p299
V3,555
p300
sVV for Vendetta
p301
V3,365
p302
sVBurlesque
p303
V3,037
p304
sVAmerican Reunion
p305
V3,203
p306
sVThe Proposal
p307
V3,158
p308
sVAlexander
p309
V2,445
p310
sVThe Polar Express
p311
V3,650
p312
sVRugrats in Paris: The Movie
p313
V2,937
p314
sVRemember the Titans
p315
V2,803
p316
sVCharlie Wilson's War
p317
V2,594
p318
sVAll About Steve
p319
V2,265
p320
sVWrath of the Titans
p321
V3,545
p322
sVFrequency
p323
V2,631
p324
sVThe Interpreter
p325
V2,814
p326
sVWhite House Down
p327
V3,222
p328
sVBridget Jones's Diary
p329
V2,547
p330
sVCheaper by the Dozen
p331
V3,307
p332
sVBoys and Girls
p333
V1,989
p334
sVThe Golden Compass
p335
V3,528
p336
sVChicago
p337
V2,701
p338
sVThe Number 23
p339
V2,759
p340
sVWedding Crashers
p341
V3,131
p342
sVNurse Betty
p343
V1,491
p344
sVUnbroken
p345
V3,301
p346
sV21 Jump Street
p347
V3,148
p348
sVFlight
p349
V2,638
p350
sVUnited 93
p351
V1,871
p352
sVCop Out
p353
V3,150
p354
sVThe Accountant
p355
V3,402
p356
sVTransformers: Dark of the Moon
p357
V4,088
p358
sVFever Pitch
p359
V3,275
p360
sVAugust Rush
p361
V2,310
p362
sVShooter
p363
V2,806
p364
sVResident Evil: Apocalypse
p365
V3,284
p366
sVThe Strangers
p367
V2,477
p368
sVDracula 2000
p369
V2,204
p370
sVZodiac
p371
V2,379
p372
sVA Million Ways to Die in the West
p373
V3,160
p374
sVNext Friday
p375
V1,420
p376
sVThe Road to El Dorado
p377
V3,223
p378
sVThe Chronicles of Narnia: Prince Caspian
p379
V3,929
p380
sVMax (2015)
p381
V2,870
p382
sVIn Time
p383
V3,127
p384
sVThe Tigger Movie
p385
V2,818
p386
sVKeeping the Faith
p387
V2,171
p388
sVTwisted
p389
V2,704
p390
sVThe Chronicles of Riddick
p391
V2,757
p392
sVSnow White and the Huntsman
p393
V3,777
p394
sVJack Ryan: Shadow Recruit
p395
V3,387
p396
sVThe New Guy
p397
V2,687
p398
sVDumb and Dumber To
p399
V3,188
p400
sVBalls of Fury
p401
V3,081
p402
sVSnitch
p403
V2,511
p404
sVThe Manchurian Candidate
p405
V2,867
p406
sVThe Island
p407
V3,138
p408
sVWhen in Rome
p409
V2,456
p410
sVWhat Happens in Vegas
p411
V3,255
p412
sVExorcist: The Beginning
p413
V2,813
p414
sVWhere the Heart Is
p415
V2,439
p416
sVBarbershop 2: Back in Business
p417
V2,711
p418
sVMillion Dollar Baby
p419
V2,375
p420
sVFirst Sunday
p421
V2,213
p422
sVFrom Hell
p423
V2,334
p424
sVAloha
p425
V2,815
p426
sVBecause of Winn-Dixie
p427
V3,188
p428
sVFriday After Next
p429
V1,621
p430
sVFinal Fantasy: The Spirits Within
p431
V2,649
p432
sVSnakes on a Plane
p433
V3,555
p434
sVUnderdog
p435
V3,013
p436
sVRio
p437
V3,842
p438
sVFun with Dick and Jane
p439
V3,239
p440
sVDeep Sea 3D (IMAX)
p441
V47
p442
sVHome on the Range
p443
V3,058
p444
sVThe Stepfather (2009)
p445
V2,734
p446
sVHannah Montana The Movie
p447
V3,231
p448
sVShrek Forever After
p449
V4,386
p450
sVA History of Violence
p451
V1,348
p452
sVA Beautiful Mind
p453
V2,250
p454
sVThe Mummy: Tomb of the Dragon Emperor
p455
V3,778
p456
sVSpy Kids 2: The Island of Lost Dreams
p457
V3,307
p458
sVGrown Ups
p459
V3,534
p460
sVSnow Dogs
p461
V2,454
p462
sVThe Fourth Kind
p463
V2,530
p464
sVMarley and Me
p465
V3,505
p466
sVPirates of the Caribbean: Dead Man's Chest
p467
V4,133
p468
sVTMNT
p469
V3,120
p470
sVInsomnia
p471
V2,610
p472
sVI Am Number Four
p473
V3,156
p474
sVThe Game Plan
p475
V3,342
p476
sVThe Eye
p477
V2,470
p478
sVThe Lord of the Rings: The Two Towers
p479
V3,622
p480
sVThe Hangover Part III
p481
V3,565
p482
sVOblivion
p483
V3,792
p484
sVShe's Out of My League
p485
V2,958
p486
sVSeven Pounds
p487
V2,758
p488
sVUptown Girls
p489
V2,495
p490
sVThe Wild
p491
V2,854
p492
sVReal Steel
p493
V3,440
p494
sVMen in Black II
p495
V3,641
p496
sVThink Like a Man Too
p497
V2,225
p498
sVCloser
p499
V1,098
p500
sVUnfriended
p501
V2,775
p502
sVInto The Storm
p503
V3,434
p504
sVBee Movie
p505
V3,984
p506
sVMe Before You
p507
V2,762
p508
sVKick-Ass
p509
V3,065
p510
sVHead of State
p511
V2,256
p512
sVThe Whole Nine Yards
p513
V2,910
p514
sVThe Bourne Supremacy
p515
V3,304
p516
sVMagic Mike XXL
p517
V3,376
p518
sVThe Unborn (2009)
p519
V2,359
p520
sVSkyfall
p521
V3,526
p522
sVBlack Knight
p523
V2,571
p524
sVHouse at the End of The Street
p525
V3,083
p526
sVPoseidon
p527
V3,555
p528
sVRighteous Kill
p529
V3,152
p530
sVIn Good Company
p531
V1,963
p532
sVJustin Bieber: Never Say Never
p533
V3,118
p534
sVBehind Enemy Lines
p535
V2,844
p536
sVJourney 2: The Mysterious Island
p537
V3,500
p538
sVSpy Kids: All the Time in the World
p539
V3,305
p540
sVTomorrowland
p541
V3,972
p542
sVSpy Kids
p543
V3,191
p544
sVThe Witch
p545
V2,204
p546
sVMadagascar
p547
V4,142
p548
sVThe Imitation Game
p549
V2,402
p550
sVIt's Complicated
p551
V2,955
p552
sV28 Days
p553
V2,523
p554
sVCaptain America: Civil War
p555
V4,226
p556
sVVacation
p557
V3,430
p558
sVNinja Assassin
p559
V2,503
p560
sVCharlie's Angels
p561
V3,037
p562
sVAnger Management
p563
V3,656
p564
sVInglourious Basterds
p565
V3,358
p566
sVThe Devil Wears Prada
p567
V2,882
p568
sVThe Adjustment Bureau
p569
V2,847
p570
sVBedazzled (2000)
p571
V2,571
p572
sVAlice Through the Looking Glass
p573
V3,763
p574
sVCaptain Corelli's Mandolin
p575
V1,612
p576
sVBlue Jasmine
p577
V1,283
p578
sVSurf's Up
p579
V3,531
p580
sVAmelie
p581
V303
p582
sVThe Heartbreak Kid
p583
V3,233
p584
sVCrossroads
p585
V2,713
p586
sVFour Christmases
p587
V3,540
p588
sVLost in Translation
p589
V882
p590
sVAlong Came Polly
p591
V3,052
p592
sVThe Aviator
p593
V2,530
p594
sVGrudge Match
p595
V2,856
p596
sVRed Eye
p597
V3,134
p598
sVThe Nice Guys
p599
V2,865
p600
sVBounce
p601
V2,028
p602
sVCheaper by the Dozen 2
p603
V3,211
p604
sVSaw III
p605
V3,167
p606
sVDelivery Man
p607
V3,036
p608
sVBarbershop: The Next Cut
p609
V2,676
p610
sVThe Divergent Series: Allegiant
p611
V3,740
p612
sVLakeview Terrace
p613
V2,574
p614
sVWindtalkers
p615
V2,898
p616
sVThe Mothman Prophecies
p617
V2,331
p618
sVHow High
p619
V1,273
p620
sVThe Incredible Hulk
p621
V3,508
p622
sVDolphin Tale 2
p623
V3,656
p624
sVIn the Bedroom
p625
V1,103
p626
sVLicense to Wed
p627
V2,715
p628
sVThe Informant!
p629
V2,505
p630
sVBeauty and the Beast (IMAX)
p631
V68
p632
sVThe Hundred-Foot Journey
p633
V2,167
p634
sVKnight & Day
p635
V3,104
p636
sVDinner for Schmucks
p637
V3,046
p638
sVThe Lincoln Lawyer
p639
V2,707
p640
sVBe Cool
p641
V3,216
p642
sVMission: Impossible - Rogue Nation
p643
V3,988
p644
sVWhat Women Want
p645
V3,092
p646
sVParanormal Activity 4
p647
V3,412
p648
sVParanormal Activity 3
p649
V3,329
p650
sVParanormal Activity 2
p651
V3,239
p652
sVShanghai Noon
p653
V2,751
p654
sVCharlie St. Cloud
p655
V2,725
p656
sVHow to Be Single
p657
V3,357
p658
sVThe Girl with the Dragon Tattoo (2011)
p659
V2,950
p660
sVDouble Take
p661
V1,631
p662
sVThe Terminal
p663
V2,914
p664
sVZathura
p665
V3,232
p666
sVTyler Perry's The Family That Preys
p667
V2,070
p668
sVWe Own the Night
p669
V2,402
p670
sVBasic
p671
V2,876
p672
sVBaby Boy
p673
V1,533
p674
sVApocalypto
p675
V2,465
p676
sVEdge of Darkness
p677
V3,066
p678
sVFences
p679
V2,368
p680
sVThe Princess and the Frog
p681
V3,475
p682
sVPlanet of the Apes (2001)
p683
V3,530
p684
sVDon't Say a Word
p685
V2,842
p686
sVSpace Cowboys
p687
V2,835
p688
sVLove and Other Drugs
p689
V2,458
p690
sVThe Reaping
p691
V2,603
p692
sVAnnabelle
p693
V3,215
p694
sVThe Hunger Games: Catching Fire
p695
V4,163
p696
sVAccepted
p697
V2,917
p698
sVThe Fast and the Furious: Tokyo Drift
p699
V3,030
p700
sVLike Mike
p701
V2,436
p702
sVThe Twilight Saga: New Moon
p703
V4,124
p704
sVDown to Earth
p705
V2,521
p706
sVTaken 2
p707
V3,706
p708
sVMamma Mia!
p709
V3,194
p710
sVThe Ugly Truth
p711
V2,975
p712
sVThe Perfect Storm
p713
V3,407
p714
sVMonster's Ball
p715
V714
p716
sVThe Phantom of the Opera
p717
V1,515
p718
sVLara Croft Tomb Raider: The Cradle of Life
p719
V3,222
p720
sVNerve
p721
V2,538
p722
sVMan on Fire
p723
V2,986
p724
sVThe Artist
p725
V1,756
p726
sV13 Hours: The Secret Soldiers of Benghazi
p727
V2,917
p728
sV102 Dalmatians
p729
V2,704
p730
sVHugo
p731
V2,608
p732
sVThe Fighter
p733
V2,534
p734
sVValentine
p735
V2,310
p736
sVThe Longest Ride
p737
V3,371
p738
sVConstantine
p739
V3,006
p740
sVBody of Lies
p741
V2,714
p742
sVTerminator: Genisys
p743
V3,783
p744
sVA Very Harold & Kumar 3D Christmas
p745
V2,875
p746
sVOne Direction: This is Us
p747
V2,735
p748
sVSafe House
p749
V3,121
p750
sVBridesmaids
p751
V2,958
p752
sVDrillbit Taylor
p753
V3,061
p754
sVDeath at a Funeral (2010)
p755
V2,459
p756
sVHercules (2014)
p757
V3,595
p758
sVFinding Neverland
p759
V1,411
p760
sVSex Tape
p761
V3,062
p762
sVBig Momma's House
p763
V2,854
p764
sVThe Purge
p765
V2,591
p766
sVPearl Harbor
p767
V3,255
p768
sVSuperbad
p769
V3,069
p770
sVRatatouille
p771
V3,940
p772
sVSinister
p773
V2,542
p774
sVHall Pass
p775
V2,950
p776
sVCrazy, Stupid, Love.
p777
V3,020
p778
sVSomeone Like You
p779
V2,349
p780
sVMirrors
p781
V2,664
p782
sVRoboCop (2014)
p783
V3,372
p784
sVStarsky and Hutch
p785
V3,185
p786
sV2016 Obama's America
p787
V2,017
p788
sVCatch Me If You Can
p789
V3,225
p790
sVSuperman Returns
p791
V4,065
p792
sVMirror Mirror
p793
V3,618
p794
sVLes Miserables (2012)
p795
V2,927
p796
sV47 Ronin
p797
V2,690
p798
sVIndiana Jones and the Kingdom of the Crystal Skull
p799
V4,264
p800
sVNo Reservations
p801
V2,425
p802
sVWhy Him?
p803
V3,008
p804
sVTotal Recall (2012)
p805
V3,601
p806
sVMonster
p807
V1,093
p808
sVPhone Booth
p809
V2,489
p810
sVOver the Hedge
p811
V4,093
p812
sVThe Grand Budapest Hotel
p813
V1,467
p814
sVTrolls
p815
V4,066
p816
sVDisney's The Kid
p817
V2,343
p818
sVDark Shadows
p819
V3,755
p820
sVGrindhouse
p821
V2,629
p822
sVShanghai Knights
p823
V2,755
p824
sVCinderella (2015)
p825
V3,848
p826
sVPeter Pan
p827
V2,813
p828
sVThe Great Debaters
p829
V1,290
p830
sVGet Hard
p831
V3,212
p832
sVTyler Perry's Diary of a Mad Black Woman
p833
V1,703
p834
sVThe Cell
p835
V2,476
p836
sVWarm Bodies
p837
V3,009
p838
sVGhostbusters (2016)
p839
V3,963
p840
sV3 Days to Kill
p841
V2,872
p842
sVSmokin' Aces
p843
V2,219
p844
sVEnemy at the Gates
p845
V1,724
p846
sVLilo & Stitch
p847
V3,222
p848
sVMeet the Spartans
p849
V2,643
p850
sVWelcome Home Roscoe Jenkins
p851
V2,387
p852
sVHow to Train Your Dragon 2
p853
V4,268
p854
sVThe Life Aquatic with Steve Zissou
p855
V1,105
p856
sVJ. Edgar
p857
V1,985
p858
sVBolt
p859
V3,654
p860
sVHell or High Water
p861
V1,505
p862
sVWar Horse
p863
V2,856
p864
sVThe Hot Chick
p865
V2,246
p866
sVErin Brockovich
p867
V3,070
p868
sVConfessions of a Shopaholic
p869
V2,534
p870
sVHannibal
p871
V3,292
p872
sVInsidious Chapter 3
p873
V3,014
p874
sVInsidious Chapter 2
p875
V3,155
p876
sVHer (2013)
p877
V1,729
p878
sVThe Last Exorcism
p879
V2,874
p880
sVBattleship
p881
V3,702
p882
sVThe Croods
p883
V4,065
p884
sVRank
p885
V\u000a\u000aFilter25th Frame\u000a26 Aries\u000a5&2\u000aA23\u000aA24\u000aAAE\u000aAbr.\u000aAD\u000aAEF\u000aAF\u000aAir Bud\u000aAlc\u000aAmpl.\u000aAnch.\u000aAR\u000aArcEnt\u000aArgentum\u000aArgo.\u000aArtma\u000aB&A\u000aBBC\u000aBG\u000aBH Tilt\u000aBoxcar\u000aBSC\u000aBSM\u000aBST\u000aBV\u000aBWP\u000aCartuna\u000aCAVU\u000aCEye\u000aCineGalaxy\u000aCinestaan\u000aCJ\u000aCL\u000aCleopatra\u000aCLS\u000aCohen\u000aCrnth\u000aCZ\u000aDalton\u000aDistrib.\u000aDreamwest\u000aDrft.\u000aDWOES\u000aEC\u000aEF\u000aElectric\u000aElev.\u000aEOne\u000aEpicPics\u000aEros\u000aESX\u000aFathom\u000aFB\u000aFCW\u000aFIP\u000aFM\u000aFocus\u000aForewarned\u000aFox\u000aFoxS\u000aFR\u000aFree\u000aFRun\u000aFUN\u000aGaatri\u000aGathr\u000aGemelli\u000aGhop\u000aGK\u000aGold.\u000aGrav.\u000aGVN\u000aHam\u000aHann.\u000aHTR\u000aIcar.\u000aICir\u000aIFC\u000aImax\u000aINDEP\u000aIndic.\u000aInvincible\u000aJampa\u000aJan.\u000aJBG\u000aJSenko\u000aJude\u000aKL\u000aLeis.\u000aLFlower\u000aLG/S\u000aLGF\u000aLGP\u000aLifeWay\u000aLightyear\u000aLinn\u000aLong Shot\u000aMagn.\u000aMarVista\u000aMasters\u000aMats.\u000aMBox\u000aMDL\u000aMen.\u000aMirror\u000aMon\u000aMont.\u000aMoore\u000aMR\u000aMS\u000aNET\u000aOrch.\u000aORF\u000aOrion\u000aOsci.\u000aPala.\u000aPar.\u000aPFR\u000aPM&E\u000aPNT\u000aPurd.\u000aQF\u000aRAtt.\u000aRed Dirt\u000aRel.\u000aRela.\u000aRelbig.\u000aRialto\u000aRM\u000aRME\u000aSaban\u000aScre.\u000aSDS\u000aSGem\u000aShad.\u000aShout!\u000aShrts.\u000aSkyI\u000aSM\u000aSony\u000aSPC\u000aStrand\u000aSTX\u000aTFA\u000aTFC\u000aTrans\u000aTriCoast\u000aTriS\u000aTUG\u000aUEP\u000aUncork'd\u000aUni.\u000aUTMW\u000aUTV\u000aVanish\u000aVanishing\u000aVE\u000aVita.\u000aVPD\u000aW/Dim.\u000aWB\u000aWB (NL)\u000aWein.\u000aWGUSA\u000aWonder\u000aWOW\u000aWRA\u000aYash\u000aYFG\u000aZee\u000aZeit.\u000aALL\u000a
p886
sVBridget Jones's Baby
p887
V2,930
p888
sVThe Messengers
p889
V2,529
p890
sVTim Burton's Corpse Bride
p891
V3,204
p892
sVMonster House
p893
V3,553
p894
sVMr. Magorium's Wonder Emporium
p895
V3,168
p896
sVUp in the Air
p897
V2,218
p898
sVGravity
p899
V3,820
p900
sVJust Like Heaven
p901
V3,543
p902
sVDeck the Halls
p903
V3,205
p904
sVRed
p905
V3,349
p906
sVRide Along
p907
V2,867
p908
sVVantage Point
p909
V3,163
p910
sVA.I. Artificial Intelligence
p911
V3,242
p912
sV8 Mile
p913
V2,585
p914
sVMoana
p915
V3,875
p916
sVRed Dragon
p917
V3,363
p918
sVDivergent
p919
V3,936
p920
sVOpen Season
p921
V3,833
p922
sVTyler Perry's Madea's Family Reunion
p923
V2,194
p924
sVSaw V
p925
V3,084
p926
sVMarvel's The Avengers
p927
V4,349
p928
sVThe Last Samurai
p929
V2,938
p930
sVThis Means War
p931
V3,189
p932
sVAmerican Wedding
p933
V3,175
p934
sVBoogeyman
p935
V3,052
p936
sVSerendipity
p937
V2,610
p938
sVBringing Down the House
p939
V2,910
p940
sVSpider-Man 2
p941
V4,166
p942
sVThe Wild Thornberrys
p943
V3,012
p944
sVOcean's Twelve
p945
V3,290
p946
sVEragon
p947
V3,030
p948
sVOrphan
p949
V2,750
p950
sVBilly Elliot
p951
V510
p952
sVEight Below
p953
V3,122
p954
sVCinderella Man
p955
V2,820
p956
sVBad Teacher
p957
V3,049
p958
sVAtlantis: The Lost Empire
p959
V3,071
p960
sVThe Conjuring
p961
V3,115
p962
sVEnough
p963
V2,623
p964
sVLeatherheads
p965
V2,798
p966
sVLaw Abiding Citizen
p967
V2,890
p968
sVThe Adventures of Sharkboy and Lavagirl in 3D
p969
V2,655
p970
sVThe Book of Life (2014)
p971
V3,113
p972
sVAustralia
p973
V2,721
p974
sVPirates of the Caribbean: At World's End
p975
V4,362
p976
sVObsessed
p977
V2,634
p978
sVThe Fast and the Furious
p979
V2,899
p980
sVNo Country for Old Men
p981
V2,037
p982
sVTammy
p983
V3,465
p984
sVAmerica's Sweethearts
p985
V3,011
p986
sVShaft
p987
V2,433
p988
sVThe Emperor's New Groove
p989
V2,887
p990
sVKung Fu Panda 3
p991
V3,987
p992
sVThink Like a Man
p993
V2,052
p994
sVA Walk in the Woods
p995
V2,158
p996
sVMission: Impossible II
p997
V3,669
p998
sVPush
p999
V2,313
p1000
sVThe Musketeer
p1001
V2,500
p1002
sVStuart Little 2
p1003
V3,282
p1004
sVCoach Carter
p1005
V2,574
p1006
sVTeenage Mutant Ninja Turtles (2014)
p1007
V3,980
p1008
sVThe Omen (2006)
p1009
V2,723
p1010
sVThe Lizzie McGuire Movie
p1011
V2,825
p1012
sVPhilomena
p1013
V1,225
p1014
sVThe Patriot
p1015
V3,061
p1016
sVHappy Feet Two
p1017
V3,611
p1018
sVAfter Earth
p1019
V3,401
p1020
sVP.S. I Love You
p1021
V2,471
p1022
sVFour Brothers
p1023
V2,649
p1024
sVX2: X-Men United
p1025
V3,749
p1026
sVThe Jungle Book (2016)
p1027
V4,144
p1028
sVRobin Hood
p1029
V3,505
p1030
sVThe Magnificent Seven (2016)
p1031
V3,696
p1032
sVGarfield: The Movie
p1033
V3,150
p1034
sVLion
p1035
V1,802
p1036
sVMunich
p1037
V1,498
p1038
sV2 Fast 2 Furious
p1039
V3,418
p1040
sVPrometheus
p1041
V3,442
p1042
sVLa La Land
p1043
V3,236
p1044
sVSuper 8
p1045
V3,424
p1046
sVEternal Sunshine of the Spotless Mind
p1047
V1,357
p1048
sVLetters to Juliet
p1049
V2,975
p1050
sVTake the Lead
p1051
V3,009
p1052
sVThe Hunger Games: Mockingjay - Part 1
p1053
V4,151
p1054
sVRock of Ages
p1055
V3,470
p1056
sVDr. Dolittle 2
p1057
V3,053
p1058
sVBirdman
p1059
V1,213
p1060
sVDaredevil
p1061
V3,474
p1062
sVBig Mommas: Like Father, Like Son
p1063
V2,821
p1064
sVI Now Pronounce You Chuck and Larry
p1065
V3,501
p1066
sVYou Got Served
p1067
V1,943
p1068
sVBoyhood
p1069
V775
p1070
sVBlended
p1071
V3,555
p1072
sVVertical Limit
p1073
V2,602
p1074
sVNight at the Museum
p1075
V3,768
p1076
sVRadio
p1077
V3,074
p1078
sVThe Queen
p1079
V1,850
p1080
sVCaptain America: The Winter Soldier
p1081
V3,938
p1082
sVEdge of Tomorrow
p1083
V3,505
p1084
sVThe Majestic
p1085
V2,361
p1086
sVCharlie and the Chocolate Factory
p1087
V3,790
p1088
sVCrimson Peak
p1089
V2,991
p1090
sVThe Ladykillers
p1091
V1,589
p1092
sVRV
p1093
V3,651
p1094
sVThe Possession
p1095
V2,860
p1096
sVThe Da Vinci Code
p1097
V3,757
p1098
sVThe Sisterhood of the Traveling Pants
p1099
V2,583
p1100
sVHancock
p1101
V3,965
p1102
sVDefiance
p1103
V1,793
p1104
sVTrouble with the Curve
p1105
V3,212
p1106
sVHansel and Gretel: Witch Hunters
p1107
V3,375
p1108
sVWorld War Z
p1109
V3,607
p1110
sVGood Night, and Good Luck.
p1111
V929
p1112
sVA Walk Among the Tombstones
p1113
V2,714
p1114
sVJonah: A VeggieTales Movie
p1115
V1,625
p1116
sVStep Brothers
p1117
V3,182
p1118
sVPatriots Day
p1119
V3,120
p1120
sVThe Water Horse: Legend of the Deep
p1121
V2,777
p1122
sVBarnyard: The Original Party Animals
p1123
V3,311
p1124
sVEnchanted
p1125
V3,730
p1126
sVWarcraft
p1127
V3,406
p1128
sVOpen Range
p1129
V2,268
p1130
sVSausage Party
p1131
V3,135
p1132
sVFree Birds
p1133
V3,736
p1134
sVMilk
p1135
V882
p1136
sVRat Race
p1137
V2,551
p1138
sVThe Sorcerer's Apprentice
p1139
V3,504
p1140
sVHidden Figures
p1141
V3,416
p1142
sVAlvin and the Chipmunks
p1143
V3,499
p1144
sVKicking and Screaming
p1145
V3,470
p1146
sVThe Brave One
p1147
V2,837
p1148
sVJoy
p1149
V2,924
p1150
sVSaw 3D
p1151
V2,808
p1152
sVThe Expendables 2
p1153
V3,355
p1154
sV28 Days Later
p1155
V1,407
p1156
sVThe Maze Runner
p1157
V3,638
p1158
sVThe Tourist
p1159
V2,756
p1160
sVThe Secret Life of Pets
p1161
V4,381
p1162
sVThe Social Network
p1163
V2,921
p1164
sVLegend of the Guardians: The Owls of Ga'Hoole
p1165
V3,575
p1166
sVRules of Engagement
p1167
V3,220
p1168
sVProject Almanac
p1169
V2,900
p1170
sVIndependence Day: Resurgence
p1171
V4,130
p1172
sVSherlock Holmes: A Game of Shadows
p1173
V3,703
p1174
sVThe Dilemma
p1175
V2,943
p1176
sVJason Bourne
p1177
V4,039
p1178
sVPuss in Boots
p1179
V3,963
p1180
sVBaby Mama
p1181
V2,627
p1182
sVRun All Night
p1183
V3,171
p1184
sVThirteen Days
p1185
V2,034
p1186
sVTransformers
p1187
V4,050
p1188
sVMadagascar: Escape 2 Africa
p1189
V4,065
p1190
sVWhat a Girl Wants
p1191
V2,964
p1192
sVSwordfish
p1193
V2,688
p1194
sVThe Jungle Book 2
p1195
V2,815
p1196
sVDate Movie
p1197
V2,898
p1198
sVMiracle
p1199
V2,755
p1200
sVThe Tale of Despereaux
p1201
V3,107
p1202
sVBend It Like Beckham
p1203
V1,002
p1204
sVThe Happening
p1205
V2,986
p1206
sVThe Change-Up
p1207
V2,913
p1208
sVThe Animal
p1209
V2,788
p1210
sVThe Nativity Story
p1211
V3,083
p1212
sVBatman Begins
p1213
V3,858
p1214
sVShrek the Third
p1215
V4,172
p1216
sVThe Last Airbender
p1217
V3,203
p1218
sVOz The Great and Powerful
p1219
V3,912
p1220
sVMonsters Vs. Aliens
p1221
V4,136
p1222
sVThe Art of War
p1223
V2,630
p1224
sVSt. Vincent
p1225
V2,552
p1226
sVBlack Swan
p1227
V2,407
p1228
sVI Am Sam
p1229
V1,450
p1230
sVThe Five-Year Engagement
p1231
V2,941
p1232
sV2 Guns
p1233
V3,028
p1234
sVDrumline
p1235
V1,837
p1236
sVDie Another Day
p1237
V3,377
p1238
sVHotel Transylvania
p1239
V3,375
p1240
sVWhat to Expect When You're Expecting
p1241
V3,021
p1242
sVSpirit: Stallion of the Cimarron
p1243
V3,362
p1244
sVSky Captain and the World of Tomorrow
p1245
V3,170
p1246
sVTropic Thunder
p1247
V3,473
p1248
sVMystic River
p1249
V1,581
p1250
sVDawn of the Dead
p1251
V2,748
p1252
sVColombiana
p1253
V2,614
p1254
sVSicko
p1255
V1,117
p1256
sVCharlotte's Web (2006)
p1257
V3,745
p1258
sVDuplicity
p1259
V2,579
p1260
sVTexas Chainsaw 3D
p1261
V2,659
p1262
sVThe Departed
p1263
V3,017
p1264
sVChef
p1265
V1,298
p1266
sVUntraceable
p1267
V2,368
p1268
sVDeadpool
p1269
V3,856
p1270
sVMuppets Most Wanted
p1271
V3,194
p1272
sVThe Grudge
p1273
V3,348
p1274
sVYou, Me and Dupree
p1275
V3,137
p1276
sVPlanes: Fire & Rescue
p1277
V3,839
p1278
sVThe Smurfs 2
p1279
V3,867
p1280
sVBad Moms
p1281
V3,215
p1282
sVHulk
p1283
V3,674
p1284
sVBeauty Shop
p1285
V2,659
p1286
sVKate and Leopold
p1287
V2,467
p1288
sVStar Wars: Episode II - Attack of the Clones
p1289
V3,161
p1290
sVHeist
p1291
V1,891
p1292
sVDrive (2011)
p1293
V2,904
p1294
sVUnderworld: Evolution
p1295
V3,207
p1296
sVThe Royal Tenenbaums
p1297
V999
p1298
sVDeja Vu
p1299
V3,108
p1300
sVLittle Nicky
p1301
V2,910
p1302
sVKevin Hart: Let Me Explain
p1303
V892
p1304
sVThe Scorpion King
p1305
V3,466
p1306
sVCatwoman
p1307
V3,117
p1308
sVPan's Labyrinth
p1309
V1,143
p1310
sVMy Big Fat Greek Wedding
p1311
V2,016
p1312
sVWhen a Stranger Calls
p1313
V3,004
p1314
sVShallow Hal
p1315
V2,799
p1316
sVThe Final Destination
p1317
V3,121
p1318
sVThe Lord of the Rings: The Return of the King
p1319
V3,703
p1320
sVEpic Movie
p1321
V2,840
p1322
sVThe Vow
p1323
V3,038
p1324
sVThe Bank Job
p1325
V1,613
p1326
sVWallace and Gromit: The Curse of the Were-Rabbit
p1327
V3,656
p1328
sVPublic Enemies
p1329
V3,336
p1330
sVDear John
p1331
V3,062
p1332
sVSaw VI
p1333
V3,036
p1334
sVThe Nut Job
p1335
V3,472
p1336
sVGreen Zone
p1337
V3,004
p1338
sVDiary of a Wimpy Kid: Dog Days
p1339
V3,401
p1340
sVFantastic Beasts and Where To Find Them
p1341
V4,144
p1342
sVScream 3
p1343
V3,467
p1344
sVG-Force
p1345
V3,697
p1346
sVThe Love Guru
p1347
V3,012
p1348
sVThe Twilight Saga: Breaking Dawn Part 2
p1349
V4,070
p1350
sVThe Mexican
p1351
V3,162
p1352
sVPacific Rim
p1353
V3,285
p1354
sVThe Twilight Saga: Breaking Dawn Part 1
p1355
V4,066
p1356
sVSnow Day
p1357
V2,717
p1358
sVThe Smurfs
p1359
V3,427
p1360
sVGet On Up
p1361
V2,469
p1362
sVBrown Sugar
p1363
V1,378
p1364
sVDjango Unchained
p1365
V3,012
p1366
sVWithout a Paddle
p1367
V2,756
p1368
sVLegally Blonde 2: Red, White and Blonde
p1369
V3,375
p1370
sVTurbo
p1371
V3,809
p1372
sVUndercover Brother
p1373
V2,169
p1374
sVPercy Jackson & The Olympians: The Lightning Thief
p1375
V3,396
p1376
sVThe Nutty Professor II: The Klumps
p1377
V3,251
p1378
sVThe Forgotten
p1379
V3,144
p1380
sVIdentity
p1381
V2,733
p1382
sVThe Mist
p1383
V2,423
p1384
sVPrecious: Based on the Novel "Push" by Sapphire
p1385
V1,003
p1386
sVAutumn in New York
p1387
V2,282
p1388
sVRed 2
p1389
V3,016
p1390
sVShutter Island
p1391
V3,356
p1392
sVDoctor Strange
p1393
V3,882
p1394
sVResident Evil: Retribution
p1395
V3,016
p1396
sVMeet the Robinsons
p1397
V3,435
p1398
sVPitch Perfect 2
p1399
V3,660
p1400
sVThe Prince and Me
p1401
V2,711
p1402
sVYogi Bear
p1403
V3,515
p1404
sVInterstellar
p1405
V3,561
p1406
sVFireproof
p1407
V905
p1408
sVLittle Miss Sunshine
p1409
V1,602
p1410
sVSinbad: Legend of the Seven Seas
p1411
V3,086
p1412
sVTyler Perry's Madea Goes to Jail
p1413
V2,203
p1414
sV21 and Over
p1415
V2,771
p1416
sVFailure to Launch
p1417
V3,202
p1418
sVMiracles from Heaven
p1419
V3,155
p1420
sVCorky Romano
p1421
V2,094
p1422
sVWild Hogs
p1423
V3,401
p1424
sVDown to You
p1425
V2,003
p1426
sVWalking with Dinosaurs
p1427
V3,243
p1428
sVMeet the Fockers
p1429
V3,554
p1430
sVXXX
p1431
V3,536
p1432
sVThe Devil Inside
p1433
V2,551
p1434
sVChimpanzee
p1435
V1,567
p1436
sVNeed for Speed
p1437
V3,115
p1438
sVMachete
p1439
V2,678
p1440
sVThe Chronicles of Narnia: The Voyage of the Dawn Treader
p1441
V3,555
p1442
sVElla Enchanted
p1443
V2,149
p1444
sVHalloween: Resurrection
p1445
V2,094
p1446
sVMaze Runner: The Scorch Trials
p1447
V3,792
p1448
sVWhat Lies Beneath
p1449
V2,925
p1450
sVHow to Train Your Dragon
p1451
V4,060
p1452
sVRisen
p1453
V2,915
p1454
sVSex and the City
p1455
V3,325
p1456
sVTed 2
p1457
V3,448
p1458
sVGodzilla (2014)
p1459
V3,952
p1460
sVRent
p1461
V2,437
p1462
sVThe Dictator
p1463
V3,014
p1464
sVThe Family Stone
p1465
V2,469
p1466
sVThe SpongeBob SquarePants Movie
p1467
V3,307
p1468
sVHarry Potter and the Goblet of Fire
p1469
V3,858
p1470
sVHide and Seek
p1471
V3,005
p1472
sVI Love You, Man
p1473
V2,829
p1474
sVThe Reader
p1475
V1,203
p1476
sVThe Roommate
p1477
V2,534
p1478
sVSweet Home Alabama
p1479
V3,313
p1480
sVHalloween (2007)
p1481
V3,475
p1482
sVLone Survivor
p1483
V3,285
p1484
sVCrank
p1485
V2,515
p1486
sVSpeed Racer
p1487
V3,606
p1488
sVHigh School Musical 3: Senior Year
p1489
V3,626
p1490
sVLand of the Lost
p1491
V3,534
p1492
sVThe Watch
p1493
V3,168
p1494
sVSaw IV
p1495
V3,183
p1496
sVBattlefield Earth
p1497
V3,307
p1498
sVPredators
p1499
V2,669
p1500
sVHigh Fidelity
p1501
V1,231
p1502
sV(500) Days of Summer
p1503
V1,048
p1504
sVBrave
p1505
V4,164
p1506
sVGrown Ups 2
p1507
V3,491
p1508
sVKingsman: The Secret Service
p1509
V3,282
p1510
sVTroy
p1511
V3,411
p1512
sVMemoirs of a Geisha
p1513
V1,654
p1514
sVPrince of Persia: The Sands of Time
p1515
V3,646
p1516
sVWe Bought a Zoo
p1517
V3,170
p1518
sVSin City
p1519
V3,230
p1520
sVAmerican Pie 2
p1521
V3,157
p1522
sVJackass: The Movie
p1523
V2,532
p1524
sVMovie Title (click to view)
p1525
VTotal Gross / Theaters
p1526
sVCapote
p1527
V1,239
p1528
sVThe Angry Birds Movie
p1529
V3,932
p1530
sVKnowing
p1531
V3,337
p1532
sVOut of Time
p1533
V3,076
p1534
sVThe Town
p1535
V2,935
p1536
sVStar Trek Beyond
p1537
V3,928
p1538
sVThere Will Be Blood
p1539
V1,620
p1540
sVThe Man From U.N.C.L.E.
p1541
V3,673
p1542
sVJohn Wick
p1543
V2,589
p1544
sVThe Good Dinosaur
p1545
V3,749
p1546
sVDiary of a Wimpy Kid: Rodrick Rules
p1547
V3,169
p1548
sVShe's the Man
p1549
V2,631
p1550
sVBurn After Reading
p1551
V2,657
p1552
sVJohnny English
p1553
V2,236
p1554
sVNow You See Me
p1555
V3,082
p1556
sVRambo
p1557
V2,764
p1558
sVThe Men Who Stare at Goats
p1559
V2,453
p1560
sVThe Skulls
p1561
V2,416
p1562
sVMonsters University
p1563
V4,004
p1564
sVThe Dukes of Hazzard
p1565
V3,785
p1566
sVMidnight in Paris
p1567
V1,038
p1568
sVHostel
p1569
V2,337
p1570
sVMr. Bean's Holiday
p1571
V1,778
p1572
sVPixels
p1573
V3,723
p1574
sVThe Good Shepherd
p1575
V2,250
p1576
sVThe Forest
p1577
V2,509
p1578
sVThe Prestige
p1579
V2,305
p1580
sVMad Max: Fury Road
p1581
V3,722
p1582
sVResident Evil
p1583
V2,528
p1584
sVNo Strings Attached
p1585
V3,050
p1586
sVGet Smart
p1587
V3,915
p1588
sVCollateral Beauty
p1589
V3,028
p1590
sVA Christmas Carol (2009)
p1591
V3,683
p1592
sVMax Payne
p1593
V3,381
p1594
sVThe Ringer
p1595
V1,853
p1596
sVHerbie: Fully Loaded
p1597
V3,521
p1598
sVSafe Haven
p1599
V3,223
p1600
sVFreedom Writers
p1601
V2,286
p1602
sVThe Expendables
p1603
V3,398
p1604
sVThe Ides of March
p1605
V2,199
p1606
sVLife as We Know It
p1607
V3,150
p1608
sVBlow
p1609
V2,249
p1610
sVSecondhand Lions
p1611
V3,038
p1612
sVAlmost Famous
p1613
V2,262
p1614
sVHow Do You Know
p1615
V2,483
p1616
sVMiss Congeniality 2: Armed and Fabulous
p1617
V3,233
p1618
sVHop
p1619
V3,616
p1620
sVRogue One: A Star Wars Story
p1621
V4,157
p1622
sVTreasure Planet
p1623
V3,227
p1624
sVDawn of the Planet of the Apes
p1625
V3,969
p1626
sVThe Score
p1627
V2,211
p1628
sVYours, Mine and Ours
p1629
V3,210
p1630
sVStep Up Revolution
p1631
V2,606
p1632
sVThe Call
p1633
V2,507
p1634
sVUnstoppable
p1635
V3,261
p1636
sVDan in Real Life
p1637
V1,941
p1638
sVBeauty and the Beast (3D)
p1639
V2,625
p1640
sVProject X
p1641
V3,055
p1642
sVTwo Weeks Notice
p1643
V2,755
p1644
sVDracula Untold
p1645
V2,900
p1646
sVJulie & Julia
p1647
V2,528
p1648
sVMan of the Year
p1649
V2,626
p1650
sVExit Wounds
p1651
V2,830
p1652
sVCasino Royale
p1653
V3,443
p1654
sVYear One
p1655
V3,024
p1656
sVThe Day the Earth Stood Still (2008)
p1657
V3,560
p1658
sVE.T. (20th Anniversary)
p1659
V3,007
p1660
sVFunny People
p1661
V3,008
p1662
sVThe Butterfly Effect
p1663
V2,605
p1664
sVUnknown
p1665
V3,043
p1666
sVResident Evil: Afterlife
p1667
V3,209
p1668
sVHitman
p1669
V2,468
p1670
sVThe Visit
p1671
V3,148
p1672
sVSherlock Holmes
p1673
V3,626
p1674
sVThe Boy (2016)
p1675
V2,671
p1676
sVHome (2015)
p1677
V3,801
p1678
sVMarmaduke
p1679
V3,213
p1680
sVSideways
p1681
V1,786
p1682
sVDiary of a Wimpy Kid
p1683
V3,083
p1684
sVGulliver's Travels
p1685
V3,089
p1686
sVX-Men: First Class
p1687
V3,692
p1688
sVShrek 2
p1689
V4,223
p1690
sVAmerican Hustle
p1691
V2,629
p1692
sVThe Purge: Election Year
p1693
V2,821
p1694
sVRush Hour 2
p1695
V3,118
p1696
sVMusic and Lyrics
p1697
V2,955
p1698
sVGhost Ship
p1699
V2,787
p1700
sVCold Mountain
p1701
V2,802
p1702
sVDid You Hear About the Morgans?
p1703
V2,718
p1704
sVStep Up 3-D
p1705
V2,439
p1706
sVThe Watcher
p1707
V2,777
p1708
sVPokemon: The Movie 2000
p1709
V2,752
p1710
sVThe Hobbit: The Battle of the Five Armies
p1711
V3,875
p1712
sVSalt
p1713
V3,612
p1714
sVHot Tub Time Machine
p1715
V2,771
p1716
sVNoah
p1717
V3,571
p1718
sVNight at the Museum: Secret of the Tomb
p1719
V3,914
p1720
sVEverest (2015)
p1721
V3,009
p1722
sVIf I Stay
p1723
V3,157
p1724
sVThe Notebook
p1725
V2,323
p1726
sVThe Chronicles of Narnia: The Lion, the Witch and the Wardrobe
p1727
V3,853
p1728
sVSan Andreas
p1729
V3,812
p1730
sVSilver Linings Playbook
p1731
V2,809
p1732
sVSea Monsters: A Prehistoric Adventure (IMAX)
p1733
V252
p1734
sVReturn to Never Land
p1735
V2,626
p1736
sVWatchmen
p1737
V3,611
p1738
sVThe Secret Life of Bees
p1739
V1,630
p1740
sVThe Crocodile Hunter: Collision Course
p1741
V2,535
p1742
sVThe Rookie
p1743
V2,543
p1744
sVGoosebumps
p1745
V3,618
p1746
sVContagion
p1747
V3,222
p1748
sVTyler Perry's Why Did I Get Married?
p1749
V2,034
p1750
sVI Spy
p1751
V3,182
p1752
sVThis Is 40
p1753
V2,931
p1754
sVSomething's Gotta Give
p1755
V2,876
p1756
sVParanormal Activity
p1757
V2,712
p1758
sVThe Matrix Reloaded
p1759
V3,603
p1760
sVDodgeBall: A True Underdog Story
p1761
V3,020
p1762
sVHubble 3D
p1763
V151
p1764
sVGreen Lantern
p1765
V3,816
p1766
sVMr. Deeds
p1767
V3,239
p1768
sVThe Family (2013)
p1769
V3,091
p1770
sVThe Odd Life of Timothy Green
p1771
V2,717
p1772
sVDevil
p1773
V2,811
p1774
sVThe Cat in the Hat
p1775
V3,467
p1776
sVMission: Impossible III
p1777
V4,059
p1778
sVParaNorman
p1779
V3,455
p1780
sVExtremely Loud & Incredibly Close
p1781
V2,630
p1782
sVCrash
p1783
V1,905
p1784
sVA Cinderella Story
p1785
V2,625
p1786
sVDespicable Me 2
p1787
V4,003
p1788
sVThe House Bunny
p1789
V2,763
p1790
sVMinions
p1791
V4,311
p1792
sVNo Escape
p1793
V3,415
p1794
sVArgo
p1795
V3,247
p1796
sVTower Heist
p1797
V3,870
p1798
sVCalendar Girls
p1799
V967
p1800
sVSpotlight
p1801
V1,227
p1802
sVFreaky Friday
p1803
V3,067
p1804
sVWar Room
p1805
V1,945
p1806
sVCast Away
p1807
V3,061
p1808
sVTyler Perry's Meet the Browns
p1809
V2,016
p1810
sVThe 5th Wave
p1811
V2,908
p1812
sVThe Rundown
p1813
V3,154
p1814
sVBad Company
p1815
V2,944
p1816
sVMy Dog Skip
p1817
V2,331
p1818
sVMy Sister's Keeper
p1819
V2,606
p1820
sVMoulin Rouge!
p1821
V2,283
p1822
sVThe Brothers Grimm
p1823
V3,098
p1824
sVBruce Almighty
p1825
V3,549
p1826
sVKung Fu Panda 2
p1827
V3,952
p1828
sVSilent Hill
p1829
V2,932
p1830
sVAcross the Universe
p1831
V964
p1832
sVRoad to Perdition
p1833
V2,332
p1834
sVKing Kong
p1835
V3,627
p1836
sVStar Wars: Episode III - Revenge of the Sith
p1837
V3,663
p1838
sVFootloose (2011)
p1839
V3,555
p1840
sVLondon Has Fallen
p1841
V3,492
p1842
sVThe Expendables 3
p1843
V3,221
p1844
sVInvincible
p1845
V2,987
p1846
sVMr. Brooks
p1847
V2,453
p1848
sVHeaven is for Real
p1849
V3,048
p1850
sVThe Recruit
p1851
V2,376
p1852
sVElysium
p1853
V3,284
p1854
sVPay It Forward
p1855
V2,130
p1856
sVBad News Bears
p1857
V3,183
p1858
sVNanny McPhee
p1859
V2,148
p1860
sVBeowulf
p1861
V3,249
p1862
sVTwo Can Play That Game
p1863
V1,308
p1864
sVSigns
p1865
V3,453
p1866
sVMaleficent
p1867
V3,948
p1868
sVThat's My Boy
p1869
V3,030
p1870
sVGhost Rider: Spirit of Vengeance
p1871
V3,174
p1872
sVCharlie's Angels: Full Throttle
p1873
V3,485
p1874
sVHitman: Agent 47
p1875
V3,273
p1876
sVImmortals
p1877
V3,120
p1878
sVTitan A.E.
p1879
V2,775
p1880
sVStar Trek Into Darkness
p1881
V3,907
p1882
sVCollateral
p1883
V3,205
p1884
sVBig Hero 6
p1885
V3,773
p1886
sV21
p1887
V2,952
p1888
sVNot Another Teen Movie
p1889
V2,365
p1890
sVSpy Kids 3D: Game Over
p1891
V3,388
p1892
sVThe Master of Disguise
p1893
V2,568
p1894
sVBest in Show
p1895
V497
p1896
sVChappie
p1897
V3,201
p1898
sVFifty Shades of Grey
p1899
V3,655
p1900
sVThe Count of Monte Cristo
p1901
V2,211
p1902
sVEvolution
p1903
V2,613
p1904
sVFool's Gold
p1905
V3,125
p1906
sVStar Wars: The Force Awakens
p1907
V4,134
p1908
sVThe Wolf of Wall Street
p1909
V2,557
p1910
sVStar Trek: Nemesis
p1911
V2,711
p1912
sVBig Fat Liar
p1913
V2,534
p1914
sVThe 6th Day
p1915
V2,516
p1916
sVTron Legacy
p1917
V3,451
p1918
sVEat Pray Love
p1919
V3,108
p1920
sVNights in Rodanthe
p1921
V2,704
p1922
sVBring It On
p1923
V2,466
p1924
sVNeighbors 2: Sorority Rising
p1925
V3,416
p1926
sVRay
p1927
V2,474
p1928
sVHorrible Bosses 2
p1929
V3,400
p1930
sVAlong Came a Spider
p1931
V2,573
p1932
sVDr. Seuss' The Lorax
p1933
V3,769
p1934
sVChanging Lanes
p1935
V2,642
p1936
sVMean Girls
p1937
V3,054
p1938
sVTears of the Sun
p1939
V2,973
p1940
sVAnalyze That
p1941
V2,635
p1942
sVThe Uninvited
p1943
V2,344
p1944
sVRush Hour 3
p1945
V3,778
p1946
sVHanging Up
p1947
V2,618
p1948
sVThe Judge
p1949
V3,003
p1950
sVDoom
p1951
V3,044
p1952
sVThe Grey
p1953
V3,208
p1954
sVMillion Dollar Arm
p1955
V3,019
p1956
sVThe Great Gatsby (2013)
p1957
V3,550
p1958
sVTransformers: Revenge of the Fallen
p1959
V4,293
p1960
sVKrampus
p1961
V2,919
p1962
sVQueen of the Damned
p1963
V2,511
p1964
sVDespicable Me
p1965
V3,602
p1966
sVJurassic World
p1967
V4,291
p1968
sVBlack or White
p1969
V1,823
p1970
sV15 Minutes
p1971
V2,337
p1972
sVHannibal Rising
p1973
V3,003
p1974
sVA Nightmare on Elm Street (2010)
p1975
V3,332
p1976
sVFrankenweenie
p1977
V3,005
p1978
sVWalking Tall
p1979
V2,836
p1980
sVIce Age: Dawn of the Dinosaurs
p1981
V4,102
p1982
sVHidalgo
p1983
V3,065
p1984
sVPassengers (2016)
p1985
V3,478
p1986
sVBlade: Trinity
p1987
V2,912
p1988
sVShark Tale
p1989
V4,070
p1990
sVJackass: Number Two
p1991
V3,063
p1992
sVThe Illusionist
p1993
V1,438
p1994
sVSelma
p1995
V2,235
p1996
sVUnder the Sea 3D
p1997
V108
p1998
sVThe Skeleton Key
p1999
V2,784
p2000
sVArthur Christmas
p2001
V3,376
p2002
sV30 Days of Night
p2003
V2,859
p2004
sVThe Hobbit: An Unexpected Journey
p2005
V4,100
p2006
sVJust Married
p2007
V2,769
p2008
sVConcussion (2015)
p2009
V2,841
p2010
sVSerenity
p2011
V2,189
p2012
sVX-Men: Days of Future Past
p2013
V4,001
p2014
sVTaxi
p2015
V3,001
p2016
sVParental Guidance
p2017
V3,368
p2018
sVFantastic Four (2005)
p2019
V3,619
p2020
sVMaster and Commander: The Far Side of the World
p2021
V3,101
p2022
sVTyler Perry's Good Deeds
p2023
V2,132
p2024
sVThe Others
p2025
V2,843
p2026
sVHarry Potter and the Chamber of Secrets
p2027
V3,682
p2028
sVClick
p2029
V3,764
p2030
sVGladiator
p2031
V3,188
p2032
sVThe Peanuts Movie
p2033
V3,902
p2034
sVLittle Man
p2035
V2,537
p2036
sVEnd of Watch
p2037
V2,780
p2038
sVThe Bourne Ultimatum
p2039
V3,701
p2040
sVArrival
p2041
V3,115
p2042
sVMust Love Dogs
p2043
V2,505
p2044
sVStranger Than Fiction
p2045
V2,270
p2046
sVK-19: The Widowmaker
p2047
V2,830
p2048
sVCloudy with a Chance of Meatballs 2
p2049
V4,001
p2050
sVMalibu's Most Wanted
p2051
V2,503
p2052
sVUnfaithful
p2053
V2,625
p2054
sVThe Age of Adaline
p2055
V3,070
p2056
sVHarry Potter and the Order of the Phoenix
p2057
V4,285
p2058
sVJumping the Broom
p2059
V2,035
p2060
sVOne Hour Photo
p2061
V1,332
p2062
sVValkyrie
p2063
V2,838
p2064
sVFinding Dory
p2065
V4,305
p2066
sVHoles
p2067
V2,452
p2068
sVThe Pink Panther (2006)
p2069
V3,477
p2070
sVHoodwinked
p2071
V3,020
p2072
sVFlags of Our Fathers
p2073
V2,375
p2074
sVSemi-Pro
p2075
V3,121
p2076
sVEx Machina
p2077
V2,004
p2078
sVUnderworld: Rise of the Lycans
p2079
V2,942
p2080
sVMy Bloody Valentine 3-D
p2081
V2,534
p2082
sVThe Hunted
p2083
V2,517
p2084
sVThe Lazarus Effect
p2085
V2,666
p2086
sVFantastic Four: Rise of the Silver Surfer
p2087
V3,963
p2088
sVGone Girl
p2089
V3,284
p2090
sVJoe Dirt
p2091
V2,638
p2092
sVFast and Furious
p2093
V3,674
p2094
sVThe Theory of Everything
p2095
V1,220
p2096
sVFracture
p2097
V2,443
p2098
sVTooth Fairy
p2099
V3,345
p2100
sVZootopia
p2101
V3,959
p2102
sVAround the World in 80 Days
p2103
V2,801
p2104
sVThe Lovely Bones
p2105
V2,638
p2106
sVThe Three Stooges
p2107
V3,482
p2108
sVTraffic
p2109
V1,755
p2110
sVThe Mummy Returns
p2111
V3,553
p2112
sVPaycheck
p2113
V2,762
p2114
sVU-571
p2115
V2,820
p2116
sVWorld Trade Center
p2117
V3,021
p2118
sVMade of Honor
p2119
V2,816
p2120
sVThis is Where I Leave You
p2121
V2,868
p2122
sVThe Hobbit: The Desolation of Smaug
p2123
V3,928
p2124
sVSomething Borrowed
p2125
V2,904
p2126
sVAre We Done Yet?
p2127
V2,944
p2128
sVThe Cabin in the Woods
p2129
V2,811
p2130
sVFriends with Benefits
p2131
V2,926
p2132
sVNight at the Museum: Battle of the Smithsonian
p2133
V4,101
p2134
sVSee Spot Run
p2135
V2,656
p2136
sVBoo! A Madea Halloween
p2137
V2,299
p2138
sVOpen Water
p2139
V2,709
p2140
sVJersey Boys
p2141
V2,905
p2142
sVFred Claus
p2143
V3,603
p2144
sVMama
p2145
V2,781
p2146
sVCats & Dogs
p2147
V3,040
p2148
sVThe Haunted Mansion
p2149
V3,122
p2150
sVBlood Work
p2151
V2,525
p2152
sVGarden State
p2153
V813
p2154
sVDarkness Falls
p2155
V2,865
p2156
sVJohn Tucker Must Die
p2157
V2,566
p2158
sVNim's Island
p2159
V3,518
p2160
sVLegally Blonde
p2161
V2,725
p2162
sVSpy Game
p2163
V2,770
p2164
sVNational Treasure
p2165
V3,243
p2166
sVThe Iron Lady
p2167
V1,244
p2168
sVCrazy Heart
p2169
V1,361
p2170
sVDance Flick
p2171
V2,459
p2172
sVThe Constant Gardener
p2173
V1,387
p2174
sVAngel Eyes
p2175
V2,407
p2176
sVFlightplan
p2177
V3,424
p2178
sVInsidious
p2179
V2,419
p2180
sVHairspray (2007)
p2181
V3,121
p2182
sVWater for Elephants
p2183
V2,820
p2184
sVThe Shallows
p2185
V2,962
p2186
sVLet's Be Cops
p2187
V3,140
p2188
sVThe Pacifier
p2189
V3,181
p2190
sVInside Man
p2191
V2,867
p2192
sVThe Flintstones in Viva Rock Vegas
p2193
V3,125
p2194
sVThe Soloist
p2195
V2,090
p2196
sVFrida
p2197
V794
p2198
sVThe Guardian
p2199
V3,241
p2200
sVLady in the Water
p2201
V3,235
p2202
sVBrothers
p2203
V2,088
p2204
sVGhosts of Girlfriends Past
p2205
V3,175
p2206
sVCars
p2207
V3,988
p2208
sVBig Fish
p2209
V2,514
p2210
sVMorning Glory
p2211
V2,544
p2212
sVSpider-Man 3
p2213
V4,324
p2214
sVBless the Child
p2215
V2,524
p2216
sVThe Lake House
p2217
V2,645
p2218
sVThe Best Man Holiday
p2219
V2,041
p2220
sVRoad Trip
p2221
V2,654
p2222
sVThe Fighting Temptations
p2223
V2,026
p2224
sVThe Legend of Bagger Vance
p2225
V2,162
p2226
sVAllied
p2227
V3,160
p2228
sVClash of the Titans (2010)
p2229
V3,802
p2230
sVBewitched
p2231
V3,188
p2232
sVJust Go With It
p2233
V3,548
p2234
sVThe Second Best Exotic Marigold Hotel
p2235
V2,022
p2236
sVPirates of the Caribbean: The Curse of the Black Pearl
p2237
V3,416
p2238
sVSpanglish
p2239
V2,587
p2240
sVX-Men: The Last Stand
p2241
V3,714
p2242
sVSpectre
p2243
V3,929
p2244
sVX-Men: Apocalypse
p2245
V4,153
p2246
sVWar of the Worlds
p2247
V3,910
p2248
sVAll About the Benjamins
p2249
V1,519
p2250
sVThe Revenant
p2251
V3,711
p2252
sVOnce Upon a Time in Mexico
p2253
V3,289
p2254
sVIce Age: The Meltdown
p2255
V3,969
p2256
sVHope Springs
p2257
V2,441
p2258
sVPremonition
p2259
V2,831
p2260
sVKung Fu Panda
p2261
V4,136
p2262
sVPanic Room
p2263
V3,119
p2264
sVPitch Black
p2265
V1,930
p2266
sVThe Bourne Legacy
p2267
V3,753
p2268
sVMegamind
p2269
V3,949
p2270
sVThe Intern
p2271
V3,320
p2272
sV9
p2273
V2,060
p2274
sVThe Help
p2275
V3,014
p2276
sVCourageous
p2277
V1,214
p2278
sVThe Longest Yard
p2279
V3,654
p2280
sVThe Internship
p2281
V3,399
p2282
sVXXX: State of the Union
p2283
V3,480
p2284
sVThe Pink Panther 2
p2285
V3,245
p2286
sVNotorious (2009)
p2287
V1,641
p2288
sVThe Passion of the Christ
p2289
V3,408
p2290
sVOld School
p2291
V2,742
p2292
sVStardust
p2293
V2,565
p2294
sVThe A-Team
p2295
V3,544
p2296
sVThe Purge: Anarchy
p2297
V2,856
p2298
sVTerminator Salvation
p2299
V3,602
p2300
sVSaw II
p2301
V2,949
p2302
sVUnderworld Awakening
p2303
V3,078
p2304
sVThor: The Dark World
p2305
V3,841
p2306
sV50 First Dates
p2307
V3,612
p2308
sVThe Legend of Tarzan
p2309
V3,591
p2310
sV50/50
p2311
V2,479
p2312
sVBattle: Los Angeles
p2313
V3,417
p2314
sVPoint Break (2015)
p2315
V2,910
p2316
sVBridget Jones: The Edge of Reason
p2317
V2,473
p2318
sVTaken
p2319
V3,184
p2320
sVSpace Station 3-D (IMAX)
p2321
V64
p2322
sVUnder the Tuscan Sun
p2323
V1,701
p2324
sVThe Punisher
p2325
V2,649
p2326
sVThe Santa Clause 3: The Escape Clause
p2327
V3,458
p2328
sVSuicide Squad
p2329
V4,255
p2330
sVFinal Destination 3
p2331
V2,880
p2332
sVFinal Destination 2
p2333
V2,834
p2334
sVMr. Popper's Penguins
p2335
V3,342
p2336
sVThe Family Man
p2337
V2,441
p2338
sVFinal Destination 5
p2339
V3,155
p2340
sVJackass 3-D
p2341
V3,139
p2342
sVDreamer: Inspired by a True Story
p2343
V2,735
p2344
sVOuija
p2345
V2,899
p2346
sVCars 2
p2347
V4,115
p2348
sVGood Luck Chuck
p2349
V2,612
p2350
sVRacing Stripes
p2351
V3,185
p2352
sVThor
p2353
V3,963
p2354
sVThe Dark Knight Rises
p2355
V4,404
p2356
sVEscape From Planet Earth
p2357
V3,353
p2358
sVExodus: Gods and Kings
p2359
V3,503
p2360
sVNational Treasure: Book of Secrets
p2361
V3,832
p2362
sVBig Momma's House 2
p2363
V3,261
p2364
sVThe Hunger Games
p2365
V4,137
p2366
sVStealth
p2367
V3,495
p2368
sVOffice Christmas Party
p2369
V3,210
p2370
sVSucker Punch
p2371
V3,033
p2372
sVThe Replacements
p2373
V2,754
p2374
sVMr. & Mrs. Smith
p2375
V3,451
p2376
sVAeon Flux
p2377
V2,608
p2378
sVContraband
p2379
V2,870
p2380
sVThe Adventures of Rocky & Bullwinkle
p2381
V2,482
p2382
sVFriday Night Lights
p2383
V3,004
p2384
sVMIB 3
p2385
V4,248
p2386
sVJourney to the Center of the Earth
p2387
V2,830
p2388
sVThe Santa Clause 2
p2389
V3,352
p2390
sVBecause I Said So
p2391
V2,529
p2392
sVSnatch
p2393
V1,444
p2394
sVFrozen
p2395
V3,742
p2396
sVThe Amazing Spider-Man 2
p2397
V4,324
p2398
sVNacho Libre
p2399
V3,083
p2400
sVHarry Potter and the Sorcerer's Stone
p2401
V3,672
p2402
sVAmerican Sniper
p2403
V3,885
p2404
sVJack and Jill
p2405
V3,438
p2406
sVMoney Monster
p2407
V3,104
p2408
sV300
p2409
V3,280
p2410
sVFinding Forrester
p2411
V2,002
p2412
sVLucy
p2413
V3,202
p2414
sVThe Other Woman (2014)
p2415
V3,306
p2416
sVThe Hangover
p2417
V3,545
p2418
sVPercy Jackson: Sea of Monsters
p2419
V3,080
p2420
sVThe Giver
p2421
V3,003
p2422
sVHostage
p2423
V2,183
p2424
sVThe Time Traveler's Wife
p2425
V2,988
p2426
sVBlue Crush
p2427
V3,015
p2428
sVElizabethtown
p2429
V2,517
p2430
sV27 Dresses
p2431
V3,074
p2432
sVState of Play
p2433
V2,807
p2434
sVJeepers Creepers
p2435
V2,944
p2436
sVElf
p2437
V3,381
p2438
sVDeath Race
p2439
V2,586
p2440
sVUrban Legends: Final Cut
p2441
V2,539
p2442
sVKubo and the Two Strings
p2443
V3,279
p2444
sVThe Woman in Black
p2445
V2,856
p2446
sVO Brother, Where Art Thou?
p2447
V847
p2448
sVWhite Noise
p2449
V2,279
p2450
sVWanted
p2451
V3,185
p2452
sVS.W.A.T.
p2453
V3,220
p2454
sVMoonlight (2016)
p2455
V1,564
p2456
sVThe Gambler
p2457
V2,494
p2458
sVShall We Dance
p2459
V2,542
p2460
sVOlympus Has Fallen
p2461
V3,106
p2462
sVDeliver Us From Evil
p2463
V3,049
p2464
sVHarold and Kumar Escape from Guantanamo Bay
p2465
V2,545
p2466
sVEagle Eye
p2467
V3,614
p2468
sVFirewall
p2469
V2,840
p2470
sVThe Sitter
p2471
V2,752
p2472
sVThe Equalizer
p2473
V3,236
p2474
sVHail, Caesar!
p2475
V2,248
p2476
sVArthur (2011)
p2477
V3,276
p2478
sVJarhead
p2479
V2,448
p2480
sVAfter the Sunset
p2481
V2,819
p2482
sVGran Torino
p2483
V3,045
p2484
sVBlack Hawk Down
p2485
V3,143
p2486
sVUnderworld
p2487
V2,928
p2488
sVQuantum of Solace
p2489
V3,501
p2490
sVBabel
p2491
V1,251
p2492
sVTrue Grit
p2493
V3,464
p2494
sVFast & Furious 6
p2495
V3,771
p2496
sVJurassic Park III
p2497
V3,462
p2498
sVThe Gift (2015)
p2499
V2,503
p2500
sVMiami Vice
p2501
V3,026
p2502
sVScary Movie
p2503
V3,301
p2504
sVScott Pilgrim vs. the World
p2505
V2,820
p2506
sVMichael Jackson's This Is It
p2507
V3,481
p2508
sVThe Shaggy Dog
p2509
V3,501
p2510
sVSisters
p2511
V2,978
p2512
sVPitch Perfect
p2513
V2,787
p2514
sVSully
p2515
V3,955
p2516
sVMinority Report
p2517
V3,001
p2518
sVQuarantine
p2519
V2,463
p2520
sVCentral Intelligence
p2521
V3,508
p2522
sVDisturbia
p2523
V3,132
p2524
sVThe Italian Job
p2525
V2,877
p2526
sVThe Wolfman
p2527
V3,223
p2528
sVShowtime
p2529
V2,917
p2530
sVSahara
p2531
V3,200
p2532
sVSweeney Todd: The Demon Barber of Fleet Street
p2533
V1,507
p2534
sVLimitless
p2535
V2,838
p2536
sVThe World's End
p2537
V1,553
p2538
sVThe Best Exotic Marigold Hotel
p2539
V1,298
p2540
sVDoubt
p2541
V1,287
p2542
sVParanormal Activity: The Marked Ones
p2543
V2,883
p2544
sVWild (2014)
p2545
V1,361
p2546
sVThe Monuments Men
p2547
V3,083
p2548
sVLara Croft: Tomb Raider
p2549
V3,349
p2550
sVSpace Chimps
p2551
V2,538
p2552
sVFantasia 2000 (IMAX)
p2553
VN/A
p2554
sVPoltergeist (2015)
p2555
V3,242
p2556
sVRomeo Must Die
p2557
V2,641
p2558
sVZack and Miri Make a Porno
p2559
V2,735
p2560
sVThe Adventures of Tintin
p2561
V3,087
p2562
sVHereafter
p2563
V2,424
p2564
sVThe Lucky One
p2565
V3,175
p2566
sVVan Helsing
p2567
V3,580
p2568
sVThe Boy Next Door
p2569
V2,615
p2570
sVSpy
p2571
V3,715
p2572
sV12 Years a Slave
p2573
V1,474
p2574
sVChicken Little
p2575
V3,658
p2576
sVSoul Surfer
p2577
V2,240
p2578
sVZookeeper
p2579
V3,482
p2580
sVOcean's Eleven
p2581
V3,075
p2582
sVThe Fault in our Stars
p2583
V3,340
p2584
sVWall Street: Money Never Sleeps
p2585
V3,597
p2586
sVKick-Ass 2
p2587
V2,945
p2588
sVAngels & Demons
p2589
V3,527
p2590
sVConfessions of a Teenage Drama Queen
p2591
V2,503
p2592
sVAct of Valor
p2593
V3,053
p2594
sVRio 2
p2595
V3,975
p2596
sVZoolander
p2597
V2,522
p2598
sVWALL-E
p2599
V3,992
p2600
sVToy Story / Toy Story 2 (3D)
p2601
V1,752
p2602
sVAnt-Man
p2603
V3,868
p2604
sVWhite Chicks
p2605
V2,800
p2606
sVTyler Perry's Daddy's Little Girls
p2607
V2,111
p2608
sVAugust: Osage County
p2609
V2,411
p2610
sV1408
p2611
V2,733
p2612
sVLadder 49
p2613
V3,261
p2614
sVHere Comes the Boom
p2615
V3,014
p2616
sVBlack Mass
p2617
V3,188
p2618
sVAre We There Yet?
p2619
V2,810
p2620
sVTangled
p2621
V3,603
p2622
sVWe Were Soldiers
p2623
V3,143
p2624
sVBridge of Spies
p2625
V2,873
p2626
sVR.I.P.D.
p2627
V2,852
p2628
sVA Man Apart
p2629
V2,495
p2630
sVRicki and the Flash
p2631
V2,064
p2632
sVChangeling
p2633
V1,896
p2634
sVThe Incredibles
p2635
V3,933
p2636
sVIce Age
p2637
V3,345
p2638
sVThe Exorcism of Emily Rose
p2639
V3,045
p2640
sVGnomeo and Juliet
p2641
V3,037
p2642
sVFat Albert
p2643
V2,744
p2644
sVThe Beach
p2645
V2,587
p2646
sVThe Divergent Series: Insurgent
p2647
V3,875
p2648
sVCaptain Phillips
p2649
V3,143
p2650
sVMother's Day
p2651
V3,291
p2652
sVOuija: Origin of Evil
p2653
V3,168
p2654
sVAtonement
p2655
V1,400
p2656
sVDragonfly
p2657
V2,507
p2658
sVDreamcatcher
p2659
V2,945
p2660
sVGods of Egypt
p2661
V3,117
p2662
sVSaving Mr. Banks
p2663
V2,671
p2664
sVTerminator 3: Rise of the Machines
p2665
V3,504
p2666
sVDriven
p2667
V2,905
p2668
sVMonsters, Inc.
p2669
V3,649
p2670
sVFinal Destination
p2671
V2,587
p2672
sVYou Don't Mess with the Zohan
p2673
V3,466
p2674
sVBlade II
p2675
V2,707
p2676
sVTakers
p2677
V2,206
p2678
sVThe Gallows
p2679
V2,720
p2680
sVInto the Woods
p2681
V2,833
p2682
sVTyler Perry's A Madea Christmas
p2683
V2,194
p2684
sVChildren of Men
p2685
V1,524
p2686
sVIntolerable Cruelty
p2687
V2,570
p2688
sVAlvin and the Chipmunks: Chipwrecked
p2689
V3,734
p2690
sVX-Men Origins: Wolverine
p2691
V4,102
p2692
sVThe Ant Bully
p2693
V3,050
p2694
sVWoman in Gold
p2695
V2,011
p2696
sVTyler Perry's Why Did I Get Married Too?
p2697
V2,155
p2698
sVCrocodile Dundee in Los Angeles
p2699
V2,166
p2700
sVChicken Run
p2701
V2,953
p2702
sVThe Core
p2703
V3,019
p2704
sVStomp the Yard
p2705
V2,169
p2706
sVHellboy II: The Golden Army
p2707
V3,212
p2708
sVDivine Secrets of the Ya-Ya Sisterhood
p2709
V2,792
p2710
sVThe Night Before
p2711
V2,960
p2712
sVThe Bounty Hunter
p2713
V3,118
p2714
sVFury (2014)
p2715
V3,313
p2716
sVMadagascar 3: Europe's Most Wanted
p2717
V4,263
p2718
sVRiddick
p2719
V3,117
p2720
sVThe Sum of All Fears
p2721
V3,230
p2722
sVHotel Transylvania 2
p2723
V3,768
p2724
sVLove & Basketball
p2725
V1,245
p2726
sVHorrible Bosses
p2727
V3,134
p2728
sVMemento
p2729
V531
p2730
sVTyler Perry's Temptation: Confessions of a Marriage Counselor
p2731
V2,047
p2732
sVHannah Montana/Miley Cyrus: Best of Both Worlds Concert Tour
p2733
V687
p2734
sVTrainwreck
p2735
V3,171
p2736
sVRecess: School's Out
p2737
V2,630
p2738
sVDeepwater Horizon
p2739
V3,403
p2740
sVShrek
p2741
V3,715
p2742
sVJeepers Creepers 2
p2743
V3,124
p2744
sVThe Pianist
p2745
V842
p2746
sVThe BFG
p2747
V3,392
p2748
sVThe One
p2749
V2,894
p2750
sVBad Santa
p2751
V2,540
p2752
sVPerfect Stranger
p2753
V2,661
p2754
sVThe Green Hornet
p2755
V3,584
p2756
sVDr. Seuss' Horton Hears a Who!
p2757
V3,961
p2758
sVNightcrawler
p2759
V2,766
p2760
sVCollege Road Trip
p2761
V2,706
p2762
sVThe Girl on the Train (2016)
p2763
V3,241
p2764
sVFlushed Away
p2765
V3,707
p2766
sVLove Actually
p2767
V1,714
p2768
sVMoonrise Kingdom
p2769
V924
p2770
sVDate Night
p2771
V3,380
p2772
sVThe Wedding Ringer
p2773
V3,003
p2774
sVAbout Last Night (2014)
p2775
V2,253
p2776
sVSecretariat
p2777
V3,108
p2778
sVRocky Balboa
p2779
V3,019
p2780
sVThe Ring
p2781
V2,927
p2782
sVSweet November
p2783
V2,268
p2784
sVBlood Diamond
p2785
V1,920
p2786
sVMonster-in-Law
p2787
V3,424
p2788
sVSky High
p2789
V2,912
p2790
sVDue Date
p2791
V3,365
p2792
sVThe Conjuring 2
p2793
V3,356
p2794
sVAlmost Christmas
p2795
V2,379
p2796
sVDaddy Day Care
p2797
V3,472
p2798
sV13 Going on 30
p2799
V3,453
p2800
sVNancy Drew
p2801
V2,612
p2802
sVTalladega Nights: The Ballad of Ricky Bobby
p2803
V3,807
p2804
sVThe Princess Diaries
p2805
V2,749
p2806
sVIce Age: Collision Course
p2807
V3,997
p2808
sVEntourage
p2809
V3,108
p2810
sVFinding Nemo (3D)
p2811
V2,904
p2812
sVRumor Has It
p2813
V2,815
p2814
sVThe Time Machine
p2815
V2,958
p2816
sVRaising Helen
p2817
V2,721
p2818
sVSaw
p2819
V2,467
p2820
sVThe Nanny Diaries
p2821
V2,636
p2822
sVMr. Woodcock
p2823
V2,237
p2824
sVSlumdog Millionaire
p2825
V2,943
p2826
sVMen of Honor
p2827
V2,188
p2828
sVProof of Life
p2829
V2,705
p2830
sVBrokeback Mountain
p2831
V2,089
p2832
sVLast Holiday
p2833
V2,514
p2834
sVJust Friends
p2835
V2,505
p2836
sVInstructions Not Included
p2837
V978
p2838
sVThe Hunger Games: Mockingjay - Part 2
p2839
V4,175
p2840
sVSource Code
p2841
V2,971
p2842
sVJoe Somebody
p2843
V2,517
p2844
sVThe Exorcist Director's Cut
p2845
V1,708
p2846
sVGarfield: A Tail of Two Kitties
p2847
V2,981
p2848
sVDaddy's Home
p2849
V3,483
p2850
sVZoolander 2
p2851
V3,418
p2852
sVThe Sweetest Thing
p2853
V2,670
p2854
sVDaybreakers
p2855
V2,523
p2856
sVDinosaur
p2857
V3,319
p2858
sVMike and Dave Need Wedding Dates
p2859
V3,008
p2860
sVThe Sisterhood of the Traveling Pants 2
p2861
V2,714
p2862
sVPenguins of Madagascar
p2863
V3,775
p2864
sVFocus (2015)
p2865
V3,323
p2866
sVThe American
p2867
V2,833
p2868
sVRole Models
p2869
V2,798
p2870
sVPlanet 51
p2871
V3,035
p2872
sVGangster Squad
p2873
V3,103
p2874
sVThe Bucket List
p2875
V2,915
p2876
sVAssassin's Creed
p2877
V2,996
p2878
sVThe Huntsman: Winter's War
p2879
V3,802
p2880
sVThe SpongeBob Movie: Sponge Out of Water
p2881
V3,680
p2882
sVSide Effects (2013)
p2883
V2,605
p2884
sVThe Transporter
p2885
V2,610
p2886
sVThe Original Kings of Comedy
p2887
V1,082
p2888
sVLincoln
p2889
V2,293
p2890
sVCollateral Damage
p2891
V2,824
p2892
sVCloudy with a Chance of Meatballs
p2893
V3,119
p2894
sVThe 40-Year-Old Virgin
p2895
V3,006
p2896
sVStep Up
p2897
V2,647
p2898
sVLove the Coopers
p2899
V2,603
p2900
sVFantastic Four
p2901
V4,004
p2902
sVThe Descendants
p2903
V2,038
p2904
sVHarry Potter and the Prisoner of Azkaban
p2905
V3,855
p2906
sVMe, Myself and Irene
p2907
V3,087
p2908
sVAgent Cody Banks 2: Destination London
p2909
V2,973
p2910
sV28 Weeks Later
p2911
V2,305
p2912
sVFor Colored Girls
p2913
V2,127
p2914
sVHow the Grinch Stole Christmas
p2915
V3,256
p2916
sVFurious 7
p2917
V4,022
p2918
sVBridge to Terabithia
p2919
V3,210
p2920
sVFast Five
p2921
V3,793
p2922
sVPirates of the Caribbean: On Stranger Tides
p2923
V4,164
p2924
sVHacksaw Ridge
p2925
V2,971
p2926
sVStuck on You
p2927
V3,007
p2928
sVMurder by Numbers
p2929
V2,663
p2930
sVNow You See Me 2
p2931
V3,232
p2932
sVPan
p2933
V3,515
p2934
sV17 Again
p2935
V3,255
p2936
sVThe Break-Up
p2937
V3,146
p2938
sVEnder's Game
p2939
V3,407
p2940
sVGet Him to the Greek
p2941
V2,702
p2942
sVJay and Silent Bob Strike Back
p2943
V2,765
p2944
sVLive Free or Die Hard
p2945
V3,411
p2946
sVLights Out
p2947
V2,835
p2948
sVJurassic Park 3D
p2949
V2,778
p2950
sVCarrie (2013)
p2951
V3,157
p2952
sVThe Lord of the Rings: The Fellowship of the Ring
p2953
V3,381
p2954
sVSon of God
p2955
V3,271
p2956
sVPineapple Express
p2957
V3,072
p2958
sVScooby-Doo
p2959
V3,447
p2960
sVPrisoners
p2961
V3,290
p2962
sVFinding Nemo
p2963
V3,425
p2964
sVThe Boss
p2965
V3,495
p2966
sVProm Night (2008)
p2967
V2,821
p2968
sVZombieland
p2969
V3,171
p2970
sVIce Age: Continental Drift
p2971
V3,886
p2972
sVChocolat
p2973
V1,928
p2974
sVStorks
p2975
V3,922
p2976
sVCoraline
p2977
V2,320
p2978
sVThe Sentinel
p2979
V2,851
p2980
sVMeet the Parents
p2981
V2,697
p2982
sVCats & Dogs: The Revenge of Kitty Galore
p2983
V3,705
p2984
sV300: Rise of An Empire
p2985
V3,490
p2986
sVThe Simpsons Movie
p2987
V3,926
p2988
sVNorbit
p2989
V3,145
p2990
sVRed Dawn (2012)
p2991
V2,781
p2992
sVJack the Giant Slayer
p2993
V3,525
p2994
sV10 Cloverfield Lane
p2995
V3,427
p2996
sVSavages (2012)
p2997
V2,635
p2998
sVJimmy Neutron: Boy Genius
p2999
V3,151
p3000
sVMagic Mike
p3001
V3,120
p3002
sVHouse of Wax
p3003
V3,111
p3004
sVBad Boys II
p3005
V3,202
p3006
sVStraight Outta Compton
p3007
V3,142
p3008
sVThe Hours
p3009
V1,010
p3010
sVJack Reacher: Never Go Back
p3011
V3,780
p3012
sVThe King's Speech
p3013
V2,584
p3014
sVThe Debt
p3015
V1,874
p3016
sVDon't Breathe
p3017
V3,384
p3018
sVAlien Vs. Predator
p3019
V3,401
p3020
sVAmerican Gangster
p3021
V3,110
p3022
sVThe Legend of Zorro
p3023
V3,520
p3024
sVScary Movie 5
p3025
V3,402
p3026
sVScary Movie 4
p3027
V3,674
p3028
sVScary Movie 3
p3029
V3,505
p3030
sVScary Movie 2
p3031
V3,220
p3032
sVSpider-Man
p3033
V3,876
p3034
sVBen-Hur (2016)
p3035
V3,084
p3036
sVNon-Stop
p3037
V3,183
p3038
sV30 Minutes or Less
p3039
V2,888
p3040
sVPain and Gain
p3041
V3,303
p3042
sVOcean's Thirteen
p3043
V3,565
p3044
sVThe Bourne Identity
p3045
V2,663
p3046
sVLawless
p3047
V3,138
p3048
sVForgetting Sarah Marshall
p3049
V2,872
p3050
sVAnchorman: The Legend of Ron Burgundy
p3051
V3,104
p3052
sVThe Pursuit of Happyness
p3053
V3,169
p3054
sVThe Matrix Revolutions
p3055
V3,502
p3056
sVThe Taking of Pelham 1 2 3
p3057
V3,077
p3058
sVThe Banger Sisters
p3059
V2,739
p3060
sVHappy Feet
p3061
V3,804
p3062
sVRace to Witch Mountain
p3063
V3,268
p3064
sVEvil Dead (2013)
p3065
V3,025
p3066
sVThe Wolverine
p3067
V3,924
p3068
sVThe Hills Have Eyes
p3069
V2,621
p3070
sVVanilla Sky
p3071
V2,842
p3072
sVAlice in Wonderland (2010)
p3073
V3,739
p3074
sVKingdom Come
p3075
V1,111
p3076
sVThe Other Guys
p3077
V3,651
p3078
sVHitch
p3079
V3,575
p3080
sVA Knight's Tale
p3081
V2,980
p3082
sVTeam America: World Police
p3083
V2,620
p3084
sVHotel for Dogs
p3085
V3,271
p3086
sVKill Bill Vol. 2
p3087
V3,073
p3088
sVHeartbreakers
p3089
V2,751
p3090
sVKill Bill Vol. 1
p3091
V3,102
p3092
sVHe's Just Not That Into You
p3093
V3,175
p3094
sVReturn to Me
p3095
V2,320
p3096
sVTyler Perry's Madea's Witness Protection
p3097
V2,161
p3098
sVAnnie (2014)
p3099
V3,197
p3100
sVFantasia 2000 (35mm & IMAX)
p3101
V1,313
p3102
sVThe Dark Knight
p3103
V4,366
p3104
sVBrooklyn
p3105
V962
p3106
sVCowboys & Aliens
p3107
V3,754
p3108
sVThe Hitchhiker's Guide to the Galaxy
p3109
V3,133
p3110
sVDerailed
p3111
V2,447
p3112
sVHarry Potter and the Deathly Hallows Part 1
p3113
V4,125
p3114
sVHarry Potter and the Deathly Hallows Part 2
p3115
V4,375
p3116
sVIn the Heart of the Sea
p3117
V3,103
p3118
sVThe Switch
p3119
V2,017
p3120
sVSing
p3121
V4,029
p3122
sVGhost Rider
p3123
V3,620
p3124
sVPaul Blart: Mall Cop
p3125
V3,206
p3126
sVMonsters, Inc. (3D)
p3127
V2,618
p3128
sVThe Pirates! Band of Misfits
p3129
V3,358
p3130
sVThe Finest Hours
p3131
V3,143
p3132
sVSwimFan
p3133
V2,860
p3134
sVJoyful Noise
p3135
V2,735
p3136
sVAliens Vs. Predator - Requiem
p3137
V2,617
p3138
sV2012
p3139
V3,444
p3140
sVThe Big Short
p3141
V2,529
p3142
sVGet Rich or Die Tryin'
p3143
V1,666
p3144
sVNapoleon Dynamite
p3145
V1,027
p3146
sVThe Curious Case of Benjamin Button
p3147
V2,988
p3148
sVMagnificent Desolation (IMAX)
p3149
V82
p3150
sVA Good Day to Die Hard
p3151
V3,555
p3152
sVRed Riding Hood
p3153
V3,030
p3154
sVDumb and Dumberer: When Harry Met Lloyd
p3155
V2,609
p3156
sVThe Fog (2005)
p3157
V2,972
p3158
sVDistrict 9
p3159
V3,180
p3160
sVI, Robot
p3161
V3,494
p3162
sVWreck-It Ralph
p3163
V3,752
p3164
sVSecret Window
p3165
V3,018
p3166
sVPete's Dragon (2016)
p3167
V3,702
p3168
sVHalloween II (2009)
p3169
V3,088
p3170
sVSouthpaw
p3171
V2,772
p3172
sVThe Village
p3173
V3,733
p3174
sVThe Spiderwick Chronicles
p3175
V3,847
p3176
sVAbraham Lincoln: Vampire Hunter
p3177
V3,109
p3178
sVAbout Schmidt
p3179
V1,240
p3180
sVInside Out
p3181
V4,158
p3182
sVBatman v Superman: Dawn of Justice
p3183
V4,256
p3184
sVOld Dogs
p3185
V3,425
p3186
sVAvatar
p3187
V3,461
p3188
sVNeighbors
p3189
V3,311
p3190
sVManchester by the Sea
p3191
V1,213
p3192
sVMiss Peregrine's Home for Peculiar Children
p3193
V3,835
p3194
sVCurious George
p3195
V2,609
p3196
sVAvengers: Age of Ultron
p3197
V4,276
p3198
sVJohnson Family Vacation
p3199
V1,326
p3200
sVThe Secret Life of Walter Mitty
p3201
V2,922
p3202
sVHollywood Homicide
p3203
V2,840
p3204
sVCouples Retreat
p3205
V3,074
p3206
sVThe Kingdom
p3207
V2,836
p3208
sVWhen the Game Stands Tall
p3209
V2,766
p3210
sVDolphin Tale
p3211
V3,515
p3212
sVThe Wedding Date
p3213
V1,704
p3214
sVThe Best of Me
p3215
V2,936
p3216
sVThe Last House on the Left (2009)
p3217
V2,402
p3218
sVTransformers: Age of Extinction
p3219
V4,233
p3220
sVRobots
p3221
V3,776
p3222
sVPaddington
p3223
V3,355
p3224
sVChristmas with the Kranks
p3225
V3,416
p3226
sVInception
p3227
V3,792
p3228
sVOrange County
p3229
V2,317
p3230
sVHollow Man
p3231
V2,956
p3232
sVNew Year's Eve
p3233
V3,505
p3234
sVLemony Snicket's A Series of Unfortunate Events
p3235
V3,623
p3236
sV10,000 B.C.
p3237
V3,454
p3238
sVThe Princess Diaries 2: Royal Engagement
p3239
V3,490
p3240
sVCreed
p3241
V3,502
p3242
sVThe Ring Two
p3243
V3,341
p3244
sVHoney
p3245
V1,972
p3246
sVKing Arthur
p3247
V3,086
p3248
sVAustin Powers in Goldmember
p3249
V3,613
p3250
sVKiss of the Dragon
p3251
V2,100
p3252
sVThe Missing
p3253
V2,756
p3254
sVWalk the Line
p3255
V3,160
p3256
sVThe League of Extraordinary Gentlemen
p3257
V3,002
p3258
sVThe Lion King (in 3D)
p3259
V2,340
p3260
sVCloverfield
p3261
V3,411
p3262
sVThe Last Song
p3263
V2,794
p3264
sVBreach
p3265
V1,505
p3266
sVMoneyball
p3267
V3,018
p3268
sVWhen the Bough Breaks
p3269
V2,246
p3270
sVHardball
p3271
V2,314
p3272
sVSeabiscuit
p3273
V2,573
p3274
sVThe Karate Kid
p3275
V3,740
p3276
sVThe Guilt Trip
p3277
V2,431
p3278
sVTeenage Mutant Ninja Turtles: Out of the Shadows
p3279
V4,071
p3280
sVThe Stepford Wives
p3281
V3,057
p3282
sVGone in 60 Seconds
p3283
V3,089
p3284
sVUp
p3285
V3,886
p3286
sVFriday the 13th (2009)
p3287
V3,105
p3288
sVRango
p3289
V3,923
p3290
sVEarth (2009)
p3291
V1,804
p3292
sVAnchorman 2: The Legend Continues
p3293
V3,507
p3294
sVPaul Blart: Mall Cop 2
p3295
V3,633
p3296
sVAbout a Boy
p3297
V1,756
p3298
sVBook of Shadows: Blair Witch 2
p3299
V3,320
p3300
sVA Walk to Remember
p3301
V2,420
p3302
sVHellboy
p3303
V3,043
p3304
sVStar Trek
p3305
V4,053
p3306
sVDrag Me to Hell
p3307
V2,510
p3308
sVThirteen Ghosts
p3309
V2,781
p3310
sVValentine's Day
p3311
V3,665
p3312
sVTraining Day
p3313
V2,712
p3314
sVNational Security
p3315
V2,729
p3316
sVDirty Grandpa
p3317
V2,912
p3318
sVRide Along 2
p3319
V3,192
p3320
sVAlvin and the Chipmunks: The Road Chip
p3321
V3,705
p3322
sVThe Book of Eli
p3323
V3,111
p3324
sVMiss Congeniality
p3325
V2,668
p3326
sVStar Wars: The Clone Wars
p3327
V3,452
p3328
sVEmployee of the Month
p3329
V2,579
p3330
sVThe Haunting in Connecticut
p3331
V2,732
p3332
sVThe Boxtrolls
p3333
V3,464
p3334
sVKevin Hart: What Now?
p3335
V2,567
p3336
sVBorat: Cultural Learnings of America for Make Benefit Glorious Nation of Kazakhstan
p3337
V2,611
p3338
sVKingdom of Heaven
p3339
V3,219
p3340
sVTed
p3341
V3,303
p3342
sVKangaroo Jack
p3343
V2,848
p3344
sVLooper
p3345
V2,993
p3346
sVZero Dark Thirty
p3347
V2,946
p3348
sVEasy A
p3349
V2,974
p3350
sVInvictus
p3351
V2,170
p3352
sVJackass Presents: Bad Grandpa
p3353
V3,345
p3354
sVBeverly Hills Chihuahua
p3355
V3,239
p3356
sVSurrogates
p3357
V2,992
p3358
sVThe Holiday
p3359
V2,698
p3360
sV40 Days and 40 Nights
p3361
V2,399
p3362
sVCoyote Ugly
p3363
V2,664
p3364
sVSave the Last Dance
p3365
V2,570
p3366
sV42
p3367
V3,405
p3368
sVRugrats Go Wild
p3369
V3,041
p3370
sVWe Are Marshall
p3371
V2,606
p3372
sVCellular
p3373
V2,763
p3374
sVMr. Peabody & Sherman
p3375
V3,951
p3376
sVRunaway Jury
p3377
V2,815
p3378
sVWhere the Wild Things Are
p3379
V3,735
p3380
sVHanna
p3381
V2,545
p3382
sVK-PAX
p3383
V2,581
p3384
sVLarry Crowne
p3385
V2,976
p3386
sVResident Evil: Extinction
p3387
V2,848
p3388
sVLast Vegas
p3389
V3,237
p3390
sVThe Rite
p3391
V2,985
p3392
sVHarry Potter and the Half-Blood Prince
p3393
V4,455
p3394
sVGuardians of the Galaxy
p3395
V4,088
p3396
sVThe Host (2013)
p3397
V3,202
p3398
sVSchool of Rock
p3399
V2,951
p3400
sVPaper Towns
p3401
V3,031
p3402
sVDallas Buyers Club
p3403
V1,110
p3404
s.